(dp0
S'fullyCoupled'
p1
((S'M2pgc'
p2
S'M3pgc'
p3
tp4
(S'Macb'
p5
S'Macc'
p6
tp7
(g5
S'Mace'
p8
tp9
(S'Makgb'
p10
S'Makgc'
p11
tp12
(g10
S'Makge'
p13
tp14
(S'Mco2b'
p15
S'Mco2c'
p16
tp17
(g15
S'Mco2e'
p18
tp19
(S'Metohb'
p20
S'Metohc'
p21
tp22
(g20
S'Metohe'
p23
tp24
(S'Mforb'
p25
S'Mforc'
p26
tp27
(g25
S'Mfore'
p28
tp29
(S'Mfumb'
p30
S'Mfumc'
p31
tp32
(g30
S'Mfume'
p33
tp34
(S'Mh2ob'
p35
S'Mh2oc'
p36
tp37
(g35
S'Mh2oe'
p38
tp39
(S'Mhb'
p40
S'Mhc'
p41
tp42
(g40
S'Mhe'
p43
tp44
(S'Mo2b'
p45
S'Mo2c'
p46
tp47
(g45
S'Mo2e'
p48
tp49
(S'Mpib'
p50
S'Mpic'
p51
tp52
(g50
S'Mpie'
p53
tp54
(S'Msuccb'
p55
S'Msuccc'
p56
tp57
(g55
S'Msucce'
p58
tp59
tp60
sS'partiallyCoupled'
p61
((g2
S'M6pgcc'
p62
tp63
(g2
S'M6pglc'
p64
tp65
(g2
S'Mdhapc'
p66
tp67
(g2
S'Me4pc'
p68
tp69
(g2
S'Mf6pc'
p70
tp71
(g2
S'Mfdpc'
p72
tp73
(g2
S'Mg3pc'
p74
tp75
(g2
S'Mg6pc'
p76
tp77
(g2
S'Mr5pc'
p78
tp79
(g2
S'Mru5pDc'
p80
tp81
(g2
S'Ms7pc'
p82
tp83
(g2
S'Mxu5pDc'
p84
tp85
(g10
S'Mcitc'
p86
tp87
(g10
S'MglcDb'
p88
tp89
(g10
S'MglcDe'
p90
tp91
(g10
S'Micitc'
p92
tp93
(g10
S'MlacDb'
p94
tp95
(g10
S'MlacDc'
p96
tp97
(g10
S'MlacDe'
p98
tp99
(g10
S'MmalLc'
p100
tp101
(g10
S'Mpyrb'
p102
tp103
(g10
S'Mpyrc'
p104
tp105
(g10
S'Mpyre'
p106
tp107
(S'Mglxc'
p108
S'Moaac'
p109
tp110
tp111
sS'directionallyCoupled'
p112
((S'M13dpgc'
p113
g2
tp114
(g113
g3
tp115
(g113
g62
tp116
(g113
g64
tp117
(g113
S'Mactpc'
p118
tp119
(g113
S'Madpc'
p120
tp121
(g113
S'Matpc'
p122
tp123
(g113
g66
tp124
(g113
g68
tp125
(g113
g70
tp126
(g113
g72
tp127
(g113
g74
tp128
(g113
g76
tp129
(g40
g113
tp130
(g41
g113
tp131
(g43
g113
tp132
(S'Mpepc'
p133
g113
tp134
(g50
g113
tp135
(g51
g113
tp136
(g53
g113
tp137
(g113
g78
tp138
(g113
g80
tp139
(g113
g82
tp140
(g113
g84
tp141
(g5
g2
tp142
(g6
g2
tp143
(g8
g2
tp144
(g118
g2
tp145
(g2
g120
tp146
(g10
g2
tp147
(g11
g2
tp148
(g13
g2
tp149
(g2
g122
tp150
(g86
g2
tp151
(g15
g2
tp152
(g16
g2
tp153
(g18
g2
tp154
(g2
S'Mcoac'
p155
tp156
(g20
g2
tp157
(g21
g2
tp158
(g23
g2
tp159
(g2
S'Mfadh2c'
p160
tp161
(g25
g2
tp162
(g26
g2
tp163
(g28
g2
tp164
(g30
g2
tp165
(g31
g2
tp166
(g33
g2
tp167
(g88
g2
tp168
(g90
g2
tp169
(g108
g2
tp170
(g35
g2
tp171
(g36
g2
tp172
(g38
g2
tp173
(g40
g2
tp174
(g41
g2
tp175
(g43
g2
tp176
(g92
g2
tp177
(g94
g2
tp178
(g96
g2
tp179
(g98
g2
tp180
(g100
g2
tp181
(g2
S'Mnadhc'
p182
tp183
(g2
S'Mnadphc'
p184
tp185
(g45
g2
tp186
(g46
g2
tp187
(g48
g2
tp188
(g109
g2
tp189
(g133
g2
tp190
(g50
g2
tp191
(g51
g2
tp192
(g53
g2
tp193
(g102
g2
tp194
(g104
g2
tp195
(g106
g2
tp196
(g2
S'Mq8h2c'
p197
tp198
(g55
g2
tp199
(g56
g2
tp200
(g58
g2
tp201
(g5
g120
tp202
(g5
g10
tp203
(g5
g11
tp204
(g5
g13
tp205
(g5
S'Mampc'
p206
tp207
(g5
g86
tp208
(g5
g66
tp209
(g5
g68
tp210
(g5
g20
tp211
(g5
g21
tp212
(g5
g23
tp213
(g5
g70
tp214
(g5
g160
tp215
(g5
g72
tp216
(g5
g25
tp217
(g5
g26
tp218
(g5
g28
tp219
(g5
g74
tp220
(g5
g76
tp221
(g5
g88
tp222
(g5
g90
tp223
(g5
g108
tp224
(g5
g35
tp225
(g5
g36
tp226
(g5
g38
tp227
(g5
g92
tp228
(g5
g94
tp229
(g5
g96
tp230
(g5
g98
tp231
(g5
g100
tp232
(g5
g182
tp233
(g5
g184
tp234
(g5
g109
tp235
(g5
g102
tp236
(g5
g104
tp237
(g5
g106
tp238
(g5
g197
tp239
(g5
g78
tp240
(g5
g80
tp241
(g5
g82
tp242
(g5
g55
tp243
(g5
g56
tp244
(g5
g58
tp245
(g5
g84
tp246
(S'Maccoac'
p247
g155
tp248
(g247
S'Msuccoac'
p249
tp250
(g118
g120
tp251
(g118
g122
tp252
(g118
g66
tp253
(g118
g68
tp254
(g118
g70
tp255
(g118
g72
tp256
(g118
g74
tp257
(g118
g76
tp258
(g118
g133
tp259
(g118
g50
tp260
(g118
g51
tp261
(g118
g53
tp262
(g118
g78
tp263
(g118
g80
tp264
(g118
g82
tp265
(g118
g84
tp266
(g206
g120
tp267
(g122
g120
tp268
(g15
g10
tp269
(g16
g10
tp270
(g18
g10
tp271
(g10
g66
tp272
(g10
g68
tp273
(g20
g10
tp274
(g21
g10
tp275
(g23
g10
tp276
(g10
g70
tp277
(g10
S'Mfadc'
p278
tp279
(g10
g72
tp280
(g25
g10
tp281
(g26
g10
tp282
(g28
g10
tp283
(g30
g10
tp284
(g31
g10
tp285
(g33
g10
tp286
(g10
g74
tp287
(g10
g76
tp288
(g108
g10
tp289
(g35
g10
tp290
(g36
g10
tp291
(g38
g10
tp292
(g40
g10
tp293
(g41
g10
tp294
(g43
g10
tp295
(g10
S'Mnadc'
p296
tp297
(g10
S'Mnadpc'
p298
tp299
(g45
g10
tp300
(g46
g10
tp301
(g48
g10
tp302
(g109
g10
tp303
(g10
g133
tp304
(g10
S'Mq8c'
p305
tp306
(g10
g78
tp307
(g10
g80
tp308
(g10
g82
tp309
(g55
g10
tp310
(g56
g10
tp311
(g58
g10
tp312
(g10
g249
tp313
(g10
g84
tp314
(g206
g122
tp315
(g15
g66
tp316
(g15
g68
tp317
(g15
g70
tp318
(g15
g72
tp319
(g15
g25
tp320
(g15
g26
tp321
(g15
g28
tp322
(g15
g74
tp323
(g15
g76
tp324
(g15
g88
tp325
(g15
g90
tp326
(g15
g108
tp327
(g15
g35
tp328
(g15
g36
tp329
(g15
g38
tp330
(g15
g40
tp331
(g15
g41
tp332
(g15
g43
tp333
(g15
g92
tp334
(g15
g94
tp335
(g15
g96
tp336
(g15
g98
tp337
(g15
g100
tp338
(g15
g45
tp339
(g15
g46
tp340
(g15
g48
tp341
(g15
g109
tp342
(g15
g102
tp343
(g15
g104
tp344
(g15
g106
tp345
(g15
g78
tp346
(g15
g80
tp347
(g15
g82
tp348
(g15
g84
tp349
(g155
g249
tp350
(g20
g70
tp351
(g20
g160
tp352
(g20
g72
tp353
(g20
g74
tp354
(g20
g76
tp355
(g20
g88
tp356
(g20
g90
tp357
(g20
g35
tp358
(g20
g36
tp359
(g20
g38
tp360
(g20
g92
tp361
(g20
g94
tp362
(g20
g96
tp363
(g20
g98
tp364
(g20
g100
tp365
(g20
g102
tp366
(g20
g104
tp367
(g20
g106
tp368
(g20
g197
tp369
(g20
g78
tp370
(g20
g80
tp371
(g20
g82
tp372
(g20
g55
tp373
(g20
g56
tp374
(g20
g58
tp375
(g20
g84
tp376
(g278
g160
tp377
(g25
g30
tp378
(g25
g31
tp379
(g25
g33
tp380
(g25
g74
tp381
(g25
g76
tp382
(g25
g88
tp383
(g25
g90
tp384
(g25
g108
tp385
(g25
g35
tp386
(g25
g36
tp387
(g25
g38
tp388
(g25
g92
tp389
(g25
g94
tp390
(g25
g96
tp391
(g25
g98
tp392
(g25
g100
tp393
(g25
g182
tp394
(g25
g184
tp395
(g25
g45
tp396
(g25
g46
tp397
(g25
g48
tp398
(g25
g109
tp399
(g25
g50
tp400
(g25
g51
tp401
(g25
g53
tp402
(g25
g102
tp403
(g25
g104
tp404
(g25
g106
tp405
(g25
g197
tp406
(g25
g78
tp407
(g25
g80
tp408
(g25
g82
tp409
(g25
g55
tp410
(g25
g56
tp411
(g25
g58
tp412
(g25
g249
tp413
(g25
g84
tp414
(g30
g74
tp415
(g30
g76
tp416
(g30
g88
tp417
(g30
g90
tp418
(g30
g108
tp419
(g30
g92
tp420
(g30
g94
tp421
(g30
g96
tp422
(g30
g98
tp423
(g30
g100
tp424
(g30
g296
tp425
(g30
g298
tp426
(g30
g45
tp427
(g30
g46
tp428
(g30
g48
tp429
(g30
g109
tp430
(g30
g133
tp431
(g30
g102
tp432
(g30
g104
tp433
(g30
g106
tp434
(g30
g305
tp435
(g30
g78
tp436
(g30
g80
tp437
(g30
g82
tp438
(g30
g55
tp439
(g30
g56
tp440
(g30
g58
tp441
(g30
g249
tp442
(g30
g84
tp443
(g108
g35
tp444
(g108
g36
tp445
(g108
g38
tp446
(g108
g40
tp447
(g108
g41
tp448
(g108
g43
tp449
(g108
g92
tp450
(g108
g94
tp451
(g108
g96
tp452
(g108
g98
tp453
(g108
g100
tp454
(g45
g108
tp455
(g46
g108
tp456
(g48
g108
tp457
(g108
g50
tp458
(g108
g51
tp459
(g108
g53
tp460
(g108
g102
tp461
(g108
g104
tp462
(g108
g106
tp463
(g108
g197
tp464
(g108
g78
tp465
(g108
g80
tp466
(g108
g82
tp467
(g108
g55
tp468
(g108
g56
tp469
(g108
g58
tp470
(g108
g249
tp471
(g108
g84
tp472
(g35
g92
tp473
(g35
g94
tp474
(g35
g96
tp475
(g35
g98
tp476
(g35
g100
tp477
(g35
g182
tp478
(g35
g184
tp479
(g35
g45
tp480
(g35
g46
tp481
(g35
g48
tp482
(g35
g109
tp483
(g35
g50
tp484
(g35
g51
tp485
(g35
g53
tp486
(g35
g102
tp487
(g35
g104
tp488
(g35
g106
tp489
(g35
g197
tp490
(g35
g78
tp491
(g35
g80
tp492
(g35
g82
tp493
(g35
g55
tp494
(g35
g56
tp495
(g35
g58
tp496
(g35
g84
tp497
(g40
g92
tp498
(g40
g94
tp499
(g40
g96
tp500
(g40
g98
tp501
(g40
g100
tp502
(g40
g296
tp503
(g40
g298
tp504
(g40
g45
tp505
(g40
g46
tp506
(g40
g48
tp507
(g40
g109
tp508
(g40
g102
tp509
(g40
g104
tp510
(g40
g106
tp511
(g40
g78
tp512
(g40
g80
tp513
(g40
g82
tp514
(g40
g84
tp515
(g296
g182
tp516
(g298
g184
tp517
(g45
g109
tp518
(g45
g50
tp519
(g45
g51
tp520
(g45
g53
tp521
(g45
g102
tp522
(g45
g104
tp523
(g45
g106
tp524
(g45
g197
tp525
(g45
g78
tp526
(g45
g80
tp527
(g45
g82
tp528
(g45
g55
tp529
(g45
g56
tp530
(g45
g58
tp531
(g45
g84
tp532
(g133
g50
tp533
(g133
g51
tp534
(g133
g53
tp535
(g133
g102
tp536
(g133
g104
tp537
(g133
g106
tp538
(g133
g305
tp539
(g133
g78
tp540
(g133
g80
tp541
(g133
g82
tp542
(g133
g55
tp543
(g133
g56
tp544
(g133
g58
tp545
(g133
g249
tp546
(g133
g84
tp547
(g50
g102
tp548
(g50
g104
tp549
(g50
g106
tp550
(g50
g197
tp551
(g50
g78
tp552
(g50
g80
tp553
(g50
g82
tp554
(g50
g55
tp555
(g50
g56
tp556
(g50
g58
tp557
(g50
g84
tp558
(g305
g197
tp559
(g55
g249
tp560
(g55
g84
tp561
tp562
s.