c__builtin__
set
p0
((lp1
S'R("R_12PPDStex_Rev")'
p2
aS'R("R_EX_orot_e__Rev")'
p3
aS'R("R_MMETtex")'
p4
aS'R("R_5DGLCNR")'
p5
aS'R("R_L_LACt2rpp")'
p6
aS'R("R_EX_arbtn_fe3_e__Rev")'
p7
aS'R("R_EX_pnto_R_e_")'
p8
aS'R("R_EX_no2_e_")'
p9
aS'R("R_12PPDStex")'
p10
aS'R("R_NDPK8")'
p11
aS'R("R_MAN6PI_Rev")'
p12
aS'R("R_ACACtex_Rev")'
p13
aS'R("R_AGPR")'
p14
aS'R("R_EX_g3pg_e__Rev")'
p15
aS'R("R_PYRt2rpp_Rev")'
p16
aS'R("R_GLTPD_Rev")'
p17
aS'R("R_EX_hxa_e__Rev")'
p18
aS'R("R_PSCLYStex_Rev")'
p19
aS'R("R_MAN6Ptex_Rev")'
p20
aS'R("R_INStex")'
p21
aS'R("R_EX_h2_e_")'
p22
aS'R("R_EX_glyc2p_e__Rev")'
p23
aS'R("R_EX_gam_e__Rev")'
p24
aS'R("R_ECOAH7_Rev")'
p25
aS'R("R_FUMtex_Rev")'
p26
aS'R("R_EX_14glucan_e_")'
p27
aS'R("R_MME")'
p28
aS'R("R_EX_glu_L_e_")'
p29
aS'R("R_CA2tex_Rev")'
p30
aS'R("R_EX_so2_e_")'
p31
aS'R("R_EX_tyrp_e__Rev")'
p32
aS'R("R_TYMtex")'
p33
aS'R("R_ATHRDHr")'
p34
aS'R("R_ASNt2rpp")'
p35
aS'R("R_GLUABUTt7pp_Rev")'
p36
aS'R("R_IPPMIb")'
p37
aS'R("R_EX_udpg_e_")'
p38
aS'R("R_CYTDt2rpp")'
p39
aS'R("R_EX_urea_e__Rev")'
p40
aS'R("R_GLCRtex")'
p41
aS'R("R_FRUURt2rpp_Rev")'
p42
aS'R("R_EX_thym_e__Rev")'
p43
aS'R("R_EX_dcyt_e_")'
p44
aS'R("R_ACONTa")'
p45
aS'R("R_MLTP3_Rev")'
p46
aS'R("R_EX_LalaDgluMdap_e_")'
p47
aS'R("R_PPK2r_Rev")'
p48
aS'R("R_EX_rmn_e_")'
p49
aS'R("R_EX_pnto_R_e__Rev")'
p50
aS'R("R_ACMANAtex_Rev")'
p51
aS'R("R_D_LACtex_Rev")'
p52
aS'R("R_EX_udpg_e__Rev")'
p53
aS'R("R_DINStex")'
p54
aS'R("R_OCBT_Rev")'
p55
aS'R("R_3OAR40")'
p56
aS'R("R_ARAI")'
p57
aS'R("R_EX_mn2_e__Rev")'
p58
aS'R("R_EX_etoh_e__Rev")'
p59
aS'R("R_GARFT_Rev")'
p60
aS'R("R_FRULYStex_Rev")'
p61
aS'R("R_GTHRDtex_Rev")'
p62
aS'R("R_EX_metsox_R_L_e_")'
p63
aS'R("R_GLYCAt2rpp_Rev")'
p64
aS'R("R_GLBRAN2")'
p65
aS'R("R_PTA2")'
p66
aS'R("R_ACACT1r_Rev")'
p67
aS'R("R_EX_succ_e__Rev")'
p68
aS'R("R_DALAtex_Rev")'
p69
aS'R("R_GALCTNtex_Rev")'
p70
aS'R("R_EX_gal_e__Rev")'
p71
aS'R("R_EX_nh4_e__Rev")'
p72
aS'R("R_EX_uacgam_e__Rev")'
p73
aS'R("R_ACACT1r")'
p74
aS'R("R_EX_for_e__Rev")'
p75
aS'R("R_EX_fe3dhbzs_e_")'
p76
aS'R("R_3PEPTtex_Rev")'
p77
aS'R("R_PHEt2rpp_Rev")'
p78
aS'R("R_TRPt2rpp_Rev")'
p79
aS'R("R_PUNP1")'
p80
aS'R("R_EX_fruur_e__Rev")'
p81
aS'R("R_EX_arg_L_e_")'
p82
aS'R("R_CRNt2rpp_Rev")'
p83
aS'R("R_EX_maltttr_e_")'
p84
aS'R("R_GBBTNtex_Rev")'
p85
aS'R("R_EX_alltn_e_")'
p86
aS'R("R_XTSNt2rpp")'
p87
aS'R("R_ACONTb")'
p88
aS'R("R_AKGtex_Rev")'
p89
aS'R("R_ICDHyr_Rev")'
p90
aS'R("R_BUTSO3tex_Rev")'
p91
aS'R("R_EX_agm_e_")'
p92
aS'R("R_CUtex")'
p93
aS'R("R_CD2tex")'
p94
aS'R("R_ALLULPE_Rev")'
p95
aS'R("R_EX_cit_e__Rev")'
p96
aS'R("R_EX_ni2_e_")'
p97
aS'R("R_EX_taur_e__Rev")'
p98
aS'R("R_EX_cpgn_e_")'
p99
aS'R("R_EX_tcynt_e_")'
p100
aS'R("R_TYRtex")'
p101
aS'R("R_GLYCtex")'
p102
aS'R("R_EX_dgsn_e__Rev")'
p103
aS'R("R_ACOAD3f_Rev")'
p104
aS'R("R_MCITL2")'
p105
aS'R("R_TUNGStex")'
p106
aS'R("R_XANtex")'
p107
aS'R("R_EX_2ddglcn_e_")'
p108
aS'R("R_URIDK2r_Rev")'
p109
aS'R("R_5DGLCNtex")'
p110
aS'R("R_GLCUR1Ptex_Rev")'
p111
aS'R("R_SO2tex_Rev")'
p112
aS'R("R_PROt4pp")'
p113
aS'R("R_EX_octa_e__Rev")'
p114
aS'R("R_KARA2")'
p115
aS'R("R_EX_arbtn_e__Rev")'
p116
aS'R("R_EX_f6p_e_")'
p117
aS'R("R_PPCSCT")'
p118
aS'R("R_GAMAN6Ptex_Rev")'
p119
aS'R("R_CBIAT_Rev")'
p120
aS'R("R_GLCS1")'
p121
aS'R("R_EX_taur_e_")'
p122
aS'R("R_PUNP5_Rev")'
p123
aS'R("R_EX_k_e__Rev")'
p124
aS'R("R_GGGABADr_Rev")'
p125
aS'R("R_ADEtex_Rev")'
p126
aS'R("R_IDONt2rpp")'
p127
aS'R("R_ARGAGMt7pp")'
p128
aS'R("R_EX_hxa_e_")'
p129
aS'R("R_ORNtex")'
p130
aS'R("R_PPM")'
p131
aS'R("R_HCO3E_Rev")'
p132
aS'R("R_EX_h2_e__Rev")'
p133
aS'R("R_EX_mso3_e__Rev")'
p134
aS'R("R_DINStex_Rev")'
p135
aS'R("R_ETOHt2rpp_Rev")'
p136
aS'R("R_EX_mmet_e__Rev")'
p137
aS'R("R_NDPK7")'
p138
aS'R("R_ALAGLUE_Rev")'
p139
aS'R("R_EX_ile_L_e_")'
p140
aS'R("R_ECOAH8")'
p141
aS'R("R_EX_met_L_e__Rev")'
p142
aS'R("R_GLYCLTt4pp")'
p143
aS'R("R_ACALD")'
p144
aS'R("R_G3PEtex_Rev")'
p145
aS'R("R_FRUURt2rpp")'
p146
aS'R("R_GALTtex")'
p147
aS'R("R_EX_ac_e__Rev")'
p148
aS'R("R_XYLUtex_Rev")'
p149
aS'R("R_EX_na1_e__Rev")'
p150
aS'R("R_SPMDtex")'
p151
aS'R("R_EX_fecrm_e_")'
p152
aS'R("R_EX_f6p_e__Rev")'
p153
aS'R("R_UREAtex")'
p154
aS'R("R_23DAPPAtex_Rev")'
p155
aS'R("R_THMDt2rpp_Rev")'
p156
aS'R("R_SUCFUMtpp")'
p157
aS'R("R_MAN6Ptex")'
p158
aS'R("R_EX_lac_L_e__Rev")'
p159
aS'R("R_DGK1_Rev")'
p160
aS'R("R_ACOTA_Rev")'
p161
aS'R("R_CAt6pp_Rev")'
p162
aS'R("R_THRt4pp")'
p163
aS'R("R_EX_acnam_e__Rev")'
p164
aS'R("R_IPPMIa")'
p165
aS'R("R_EX_hdcea_e_")'
p166
aS'R("R_METtex_Rev")'
p167
aS'R("R_TMAtex")'
p168
aS'R("R_EX_din_e_")'
p169
aS'R("R_INSt2rpp_Rev")'
p170
aS'R("R_ETHAtex_Rev")'
p171
aS'R("R_GLYALDtex")'
p172
aS'R("R_BALAtex_Rev")'
p173
aS'R("R_EX_hom_L_e_")'
p174
aS'R("R_EX_xmp_e__Rev")'
p175
aS'R("R_EX_glyc_R_e_")'
p176
aS'R("R_PTAr")'
p177
aS'R("R_EX_dump_e_")'
p178
aS'R("R_EX_inost_e__Rev")'
p179
aS'R("R_GLUt2rpp_Rev")'
p180
aS'R("R_GLCNt2rpp")'
p181
aS'R("R_EX_indole_e__Rev")'
p182
aS'R("R_PPAKr_Rev")'
p183
aS'R("R_EX_acgam_e_")'
p184
aS'R("R_EX_lyx_L_e_")'
p185
aS'R("R_EX_lipa_e_")'
p186
aS'R("R_MDH")'
p187
aS'R("R_EX_ddca_e__Rev")'
p188
aS'R("R_EX_3ump_e__Rev")'
p189
aS'R("R_DAPE_Rev")'
p190
aS'R("R_3OAR80")'
p191
aS'R("R_GLYC3Ptex")'
p192
aS'R("R_H2tex")'
p193
aS'R("R_TARTRt7pp")'
p194
aS'R("R_IDONtex_Rev")'
p195
aS'R("R_AICART_Rev")'
p196
aS'R("R_EX_r5p_e__Rev")'
p197
aS'R("R_EX_acald_e__Rev")'
p198
aS'R("R_ANHGMtex")'
p199
aS'R("R_EX_cpgn_un_e_")'
p200
aS'R("R_E4PD")'
p201
aS'R("R_EX_fe3dhbzs_e__Rev")'
p202
aS'R("R_EX_no3_e_")'
p203
aS'R("R_CYNTtex")'
p204
aS'R("R_EX_lipa_cold_e_")'
p205
aS'R("R_SO4tex_Rev")'
p206
aS'R("R_ISETACtex")'
p207
aS'R("R_NO2tex")'
p208
aS'R("R_EX_glyclt_e__Rev")'
p209
aS'R("R_TGBPA_Rev")'
p210
aS'R("R_SERAT")'
p211
aS'R("R_LDH_D_Rev")'
p212
aS'R("R_CSNtex_Rev")'
p213
aS'R("R_MTHFD")'
p214
aS'R("R_EX_ade_e__Rev")'
p215
aS'R("R_MG2t3_2pp")'
p216
aS'R("R_DHFR_Rev")'
p217
aS'R("R_GALURt2rpp_Rev")'
p218
aS'R("R_RPI_Rev")'
p219
aS'R("R_LDH_D")'
p220
aS'R("R_CRNBTCT")'
p221
aS'R("R_5DGLCNR_Rev")'
p222
aS'R("R_ECOAH1_Rev")'
p223
aS'R("R_URIt2rpp")'
p224
aS'R("R_GLCNt2rpp_Rev")'
p225
aS'R("R_CRNCDH")'
p226
aS'R("R_FRULYSDG_Rev")'
p227
aS'R("R_EX_arab_L_e__Rev")'
p228
aS'R("R_FBA_Rev")'
p229
aS'R("R_BUTt2rpp")'
p230
aS'R("R_EX_23cgmp_e_")'
p231
aS'R("R_IMPtex")'
p232
aS'R("R_H2O2tex")'
p233
aS'R("R_M1PD")'
p234
aS'R("R_CLPNS141pp")'
p235
aS'R("R_EX_na1_e_")'
p236
aS'R("R_DMSOtex")'
p237
aS'R("R_PYNP2r")'
p238
aS'R("R_EX_cys_L_e_")'
p239
aS'R("R_EX_din_e__Rev")'
p240
aS'R("R_THMDt2rpp")'
p241
aS'R("R_URAt2rpp")'
p242
aS'R("R_GLCP2")'
p243
aS'R("R_EX_g3pe_e_")'
p244
aS'R("R_PUNP6_Rev")'
p245
aS'R("R_ECOAH3")'
p246
aS'R("R_EX_acgam1p_e__Rev")'
p247
aS'R("R_SUCRtex")'
p248
aS'R("R_CAt6pp")'
p249
aS'R("R_GUI2_Rev")'
p250
aS'R("R_INDOLEt2rpp")'
p251
aS'R("R_GLYCLTt2rpp_Rev")'
p252
aS'R("R_DADNtex")'
p253
aS'R("R_EX_ttdca_e_")'
p254
aS'R("R_EX_cbi_e_")'
p255
aS'R("R_DURItex")'
p256
aS'R("R_MALDtex_Rev")'
p257
aS'R("R_EX_cobalt2_e_")'
p258
aS'R("R_ALAtex")'
p259
aS'R("R_BALAtex")'
p260
aS'R("R_TARTRt7pp_Rev")'
p261
aS'R("R_ECOAH5_Rev")'
p262
aS'R("R_EX_malt_e__Rev")'
p263
aS'R("R_EX_o2s_e__Rev")'
p264
aS'R("R_PHETA1_Rev")'
p265
aS'R("R_DGSNtex")'
p266
aS'R("R_TAGURr")'
p267
aS'R("R_EX_xtsn_e_")'
p268
aS'R("R_FALDH2_Rev")'
p269
aS'R("R_GALKr_Rev")'
p270
aS'R("R_EX_23cump_e_")'
p271
aS'R("R_ACOAD1f_Rev")'
p272
aS'R("R_FALDtex")'
p273
aS'R("R_26DAHtex_Rev")'
p274
aS'R("R_MNLtex")'
p275
aS'R("R_G6PDH2r_Rev")'
p276
aS'R("R_EX_dopa_e_")'
p277
aS'R("R_EX_pser_L_e_")'
p278
aS'R("R_EX_galctn_L_e__Rev")'
p279
aS'R("R_IPDDI")'
p280
aS'R("R_ACOATA")'
p281
aS'R("R_TCYNTtex")'
p282
aS'R("R_DHBD_Rev")'
p283
aS'R("R_EX_fe3hox_e_")'
p284
aS'R("R_EX_g6p_e_")'
p285
aS'R("R_ACGAL1Ptex_Rev")'
p286
aS'R("R_GLUR_Rev")'
p287
aS'R("R_EX_dmso_e__Rev")'
p288
aS'R("R_EX_g3ps_e__Rev")'
p289
aS'R("R_ASPK")'
p290
aS'R("R_EX_ag_e_")'
p291
aS'R("R_GTHRDtex")'
p292
aS'R("R_CLPNS140pp_Rev")'
p293
aS'R("R_ETHSO3tex")'
p294
aS'R("R_3OAR120_Rev")'
p295
aS'R("R_EX_acgal1p_e_")'
p296
aS'R("R_EX_acolipa_e__Rev")'
p297
aS'R("R_GALBDtex")'
p298
aS'R("R_EX_malttr_e__Rev")'
p299
aS'R("R_EX_hdcea_e__Rev")'
p300
aS'R("R_PROGLYtex_Rev")'
p301
aS'R("R_ACOAD2f_Rev")'
p302
aS'R("R_NDPK2")'
p303
aS'R("R_DDGLCNtex")'
p304
aS'R("R_G1Ptex_Rev")'
p305
aS'R("R_NAt3pp")'
p306
aS'R("R_ACGAtex")'
p307
aS'R("R_TYRTA")'
p308
aS'R("R_EX_thymd_e__Rev")'
p309
aS'R("R_EX_galctn_L_e_")'
p310
aS'R("R_D_LACtex")'
p311
aS'R("R_ECOAH2_Rev")'
p312
aS'R("R_EX_crn_e__Rev")'
p313
aS'R("R_GSNtex_Rev")'
p314
aS'R("R_PACALDt2rpp_Rev")'
p315
aS'R("R_EX_met_D_e__Rev")'
p316
aS'R("R_ACACtex")'
p317
aS'R("R_EX_2ddglcn_e__Rev")'
p318
aS'R("R_HPYRI")'
p319
aS'R("R_ADNtex_Rev")'
p320
aS'R("R_GTHOXtex_Rev")'
p321
aS'R("R_ARBtex")'
p322
aS'R("R_EX_cys_D_e__Rev")'
p323
aS'R("R_EX_galur_e_")'
p324
aS'R("R_DSERDHr")'
p325
aS'R("R_EX_cobalt2_e__Rev")'
p326
aS'R("R_GLYBtex_Rev")'
p327
aS'R("R_G3PEtex")'
p328
aS'R("R_EX_enlipa_e_")'
p329
aS'R("R_34dhpactex")'
p330
aS'R("R_FE2tex_Rev")'
p331
aS'R("R_KAT1")'
p332
aS'R("R_MTHFC")'
p333
aS'R("R_EX_colipa_e_")'
p334
aS'R("R_EX_nac_e__Rev")'
p335
aS'R("R_PUNP7_Rev")'
p336
aS'R("R_GUAtpp_Rev")'
p337
aS'R("R_EX_ptrc_e__Rev")'
p338
aS'R("R_MCOATA_Rev")'
p339
aS'R("R_EX_uri_e__Rev")'
p340
aS'R("R_EX_tym_e__Rev")'
p341
aS'R("R_EX_3cmp_e__Rev")'
p342
aS'R("R_ADK3")'
p343
aS'R("R_IMPC")'
p344
aS'R("R_EX_pheme_e__Rev")'
p345
aS'R("R_EX_34dhpac_e_")'
p346
aS'R("R_EX_hacolipa_e__Rev")'
p347
aS'R("R_OROTtex_Rev")'
p348
aS'R("R_DHPTPE")'
p349
aS'R("R_HSDy_Rev")'
p350
aS'R("R_GLUtex_Rev")'
p351
aS'R("R_N2Otex")'
p352
aS'R("R_ALAALAtex_Rev")'
p353
aS'R("R_EX_sucr_e_")'
p354
aS'R("R_EX_psclys_e_")'
p355
aS'R("R_ACtex_Rev")'
p356
aS'R("R_EX_galct_D_e__Rev")'
p357
aS'R("R_ADEt2rpp")'
p358
aS'R("R_GLCRtex_Rev")'
p359
aS'R("R_EX_no2_e__Rev")'
p360
aS'R("R_EX_maltttr_e__Rev")'
p361
aS'R("R_MALDtex")'
p362
aS'R("R_EX_val_L_e__Rev")'
p363
aS'R("R_GALtex_Rev")'
p364
aS'R("R_UMPK")'
p365
aS'R("R_FRULYSDG")'
p366
aS'R("R_HIStex")'
p367
aS'R("R_EX_acmum_e__Rev")'
p368
aS'R("R_DMStex")'
p369
aS'R("R_CO2tpp_Rev")'
p370
aS'R("R_EX_metsox_R_L_e__Rev")'
p371
aS'R("R_DMStex_Rev")'
p372
aS'R("R_EX_dopa_e__Rev")'
p373
aS'R("R_23DAPPAtex")'
p374
aS'R("R_CYTDtex_Rev")'
p375
aS'R("R_G3PGtex")'
p376
aS'R("R_EX_3hpppn_e__Rev")'
p377
aS'R("R_LCTStex")'
p378
aS'R("R_ACOAD8f")'
p379
aS'R("R_EX_fecrm_un_e_")'
p380
aS'R("R_EX_sulfac_e__Rev")'
p381
aS'R("R_NDPK2_Rev")'
p382
aS'R("R_ACONIs_Rev")'
p383
aS'R("R_DCMPtex_Rev")'
p384
aS'R("R_XYLI2_Rev")'
p385
aS'R("R_DADNtex_Rev")'
p386
aS'R("R_DSERtex")'
p387
aS'R("R_GLCRt2rpp_Rev")'
p388
aS'R("R_EX_fe3hox_e__Rev")'
p389
aS'R("R_GLYCAtex")'
p390
aS'R("R_EX_ca2_e__Rev")'
p391
aS'R("R_EX_h2o_e_")'
p392
aS'R("R_NDPK1_Rev")'
p393
aS'R("R_PPALtpp_Rev")'
p394
aS'R("R_EX_malthx_e__Rev")'
p395
aS'R("R_EX_lac_D_e_")'
p396
aS'R("R_EX_skm_e__Rev")'
p397
aS'R("R_ETOHtex")'
p398
aS'R("R_G6PDH2r")'
p399
aS'R("R_EX_adn_e__Rev")'
p400
aS'R("R_EX_galt_e__Rev")'
p401
aS'R("R_AMAOTr")'
p402
aS'R("R_EX_gthrd_e__Rev")'
p403
aS'R("R_3OAR160")'
p404
aS'R("R_H2Otex")'
p405
aS'R("R_TMAtex_Rev")'
p406
aS'R("R_GLCATr_Rev")'
p407
aS'R("R_XTSNtex")'
p408
aS'R("R_MG2tex")'
p409
aS'R("R_EX_pppn_e__Rev")'
p410
aS'R("R_LCTStex_Rev")'
p411
aS'R("R_ASNt2rpp_Rev")'
p412
aS'R("R_CGLYtex")'
p413
aS'R("R_BUTtex_Rev")'
p414
aS'R("R_PRPPS_Rev")'
p415
aS'R("R_F6PA")'
p416
aS'R("R_ABUTtex_Rev")'
p417
aS'R("R_EX_23ccmp_e__Rev")'
p418
aS'R("R_EX_feenter_e__Rev")'
p419
aS'R("R_NDPK4_Rev")'
p420
aS'R("R_GLCATr")'
p421
aS'R("R_EX_cynt_e_")'
p422
aS'R("R_EX_udpglcur_e_")'
p423
aS'R("R_EX_tyrp_e_")'
p424
aS'R("R_ADNt2rpp")'
p425
aS'R("R_EX_lipa_e__Rev")'
p426
aS'R("R_EX_lyx_L_e__Rev")'
p427
aS'R("R_EX_enlipa_e__Rev")'
p428
aS'R("R_ALAALAtex")'
p429
aS'R("R_PROt2rpp")'
p430
aS'R("R_FE3tex_Rev")'
p431
aS'R("R_EX_tmao_e__Rev")'
p432
aS'R("R_AMANAPEr")'
p433
aS'R("R_H2tpp_Rev")'
p434
aS'R("R_PGM")'
p435
aS'R("R_EX_cgly_e_")'
p436
aS'R("R_EX_cgly_e__Rev")'
p437
aS'R("R_EX_hacolipa_e_")'
p438
aS'R("R_23CAMPtex")'
p439
aS'R("R_EX_ppt_e_")'
p440
aS'R("R_GLUR")'
p441
aS'R("R_GLYCAtex_Rev")'
p442
aS'R("R_DHPTPE_Rev")'
p443
aS'R("R_NO2t2rpp")'
p444
aS'R("R_TMAOtex")'
p445
aS'R("R_EX_mal_L_e_")'
p446
aS'R("R_ACGALtex_Rev")'
p447
aS'R("R_EX_feoxam_e_")'
p448
aS'R("R_EX_for_e_")'
p449
aS'R("R_EX_cys_D_e_")'
p450
aS'R("R_CLPNS120pp_Rev")'
p451
aS'R("R_ICHORS")'
p452
aS'R("R_EX_idon_L_e__Rev")'
p453
aS'R("R_G3PGtex_Rev")'
p454
aS'R("R_GALURtex")'
p455
aS'R("R_ORPT")'
p456
aS'R("R_Zn2tex")'
p457
aS'R("R_ASPtex_Rev")'
p458
aS'R("R_EX_kdo2lipid4_e__Rev")'
p459
aS'R("R_PHETA1")'
p460
aS'R("R_EX_pacald_e_")'
p461
aS'R("R_EX_asn_L_e__Rev")'
p462
aS'R("R_GLUt2rpp")'
p463
aS'R("R_AIRC3")'
p464
aS'R("R_SERt2rpp")'
p465
aS'R("R_UDPKAAT_Rev")'
p466
aS'R("R_UMPK_Rev")'
p467
aS'R("R_TKT1")'
p468
aS'R("R_DCYTtex")'
p469
aS'R("R_EX_glyc_e__Rev")'
p470
aS'R("R_FALGTHLs_Rev")'
p471
aS'R("R_TRPt2rpp")'
p472
aS'R("R_EX_g3pc_e__Rev")'
p473
aS'R("R_CRNt2rpp")'
p474
aS'R("R_INDOLEtex_Rev")'
p475
aS'R("R_EX_aso3_e__Rev")'
p476
aS'R("R_PPPNtex_Rev")'
p477
aS'R("R_EX_malttr_e_")'
p478
aS'R("R_GTPtex")'
p479
aS'R("R_EX_gthox_e__Rev")'
p480
aS'R("R_EX_zn2_e__Rev")'
p481
aS'R("R_ACKr_Rev")'
p482
aS'R("R_XYLI1_Rev")'
p483
aS'R("R_ADK4")'
p484
aS'R("R_CLPNS161pp_Rev")'
p485
aS'R("R_DHAtpp")'
p486
aS'R("R_GALCTtex_Rev")'
p487
aS'R("R_FRULYSE")'
p488
aS'R("R_E4PD_Rev")'
p489
aS'R("R_R1PK")'
p490
aS'R("R_3OAR80_Rev")'
p491
aS'R("R_DAPE")'
p492
aS'R("R_GTHOr")'
p493
aS'R("R_FRULYSE_Rev")'
p494
aS'R("R_ASAD_Rev")'
p495
aS'R("R_DAPtex_Rev")'
p496
aS'R("R_URItex_Rev")'
p497
aS'R("R_EX_tungs_e_")'
p498
aS'R("R_DGMPtex")'
p499
aS'R("R_EX_xan_e_")'
p500
aS'R("R_EX_cbl1_e__Rev")'
p501
aS'R("R_LEUtex_Rev")'
p502
aS'R("R_ACNAMtex")'
p503
aS'R("R_EX_udpacgal_e__Rev")'
p504
aS'R("R_TYRPtex_Rev")'
p505
aS'R("R_THMtex")'
p506
aS'R("R_G6Ptex")'
p507
aS'R("R_RMI_Rev")'
p508
aS'R("R_DTMPtex_Rev")'
p509
aS'R("R_12PPDStpp")'
p510
aS'R("R_EX_26dap_M_e_")'
p511
aS'R("R_ACOAD8f_Rev")'
p512
aS'R("R_EX_xylu_L_e_")'
p513
aS'R("R_GLYtex")'
p514
aS'R("R_NAtex")'
p515
aS'R("R_NDPK4")'
p516
aS'R("R_ADSL1r_Rev")'
p517
aS'R("R_EX_nh4_e_")'
p518
aS'R("R_IDOND")'
p519
aS'R("R_SULFACtex_Rev")'
p520
aS'R("R_CGLYtex_Rev")'
p521
aS'R("R_EX_sbt_D_e_")'
p522
aS'R("R_CYSDtex_Rev")'
p523
aS'R("R_DHAtex_Rev")'
p524
aS'R("R_DIMPtex_Rev")'
p525
aS'R("R_EX_ttdcea_e_")'
p526
aS'R("R_ACOAD5f")'
p527
aS'R("R_FORtex")'
p528
aS'R("R_TKT1_Rev")'
p529
aS'R("R_EX_dca_e_")'
p530
aS'R("R_GALCTNLtex_Rev")'
p531
aS'R("R_MCITL2_Rev")'
p532
aS'R("R_EX_ppal_e__Rev")'
p533
aS'R("R_GLCNtex")'
p534
aS'R("R_EX_fald_e__Rev")'
p535
aS'R("R_MALTATr")'
p536
aS'R("R_PSCLYStex")'
p537
aS'R("R_EX_no_e_")'
p538
aS'R("R_XANtpp")'
p539
aS'R("R_INStex_Rev")'
p540
aS'R("R_EX_o16a4colipa_e_")'
p541
aS'R("R_FCI_Rev")'
p542
aS'R("R_EX_h2o2_e__Rev")'
p543
aS'R("R_NDPK6_Rev")'
p544
aS'R("R_MSO3tex_Rev")'
p545
aS'R("R_URIt2rpp_Rev")'
p546
aS'R("R_EX_pser_L_e__Rev")'
p547
aS'R("R_RPI")'
p548
aS'R("R_XMPtex_Rev")'
p549
aS'R("R_CO2tex")'
p550
aS'R("R_RMNtex")'
p551
aS'R("R_THMtex_Rev")'
p552
aS'R("R_EX_orot_e_")'
p553
aS'R("R_EX_fe3_e__Rev")'
p554
aS'R("R_G1SAT_Rev")'
p555
aS'R("R_GALTtex_Rev")'
p556
aS'R("R_OHPBAT")'
p557
aS'R("R_OHPBAT_Rev")'
p558
aS'R("R_EX_damp_e__Rev")'
p559
aS'R("R_URAtex")'
p560
aS'R("R_EX_octa_e_")'
p561
aS'R("R_GBBTNtex")'
p562
aS'R("R_GLYtex_Rev")'
p563
aS'R("R_EX_sulfac_e_")'
p564
aS'R("R_ACOAD4f_Rev")'
p565
aS'R("R_EX_15dap_e_")'
p566
aS'R("R_EX_g3pc_e_")'
p567
aS'R("R_ACOAD2f")'
p568
aS'R("R_EX_cmp_e__Rev")'
p569
aS'R("R_ASO3tex_Rev")'
p570
aS'R("R_ASPTA_Rev")'
p571
aS'R("R_EX_cytd_e__Rev")'
p572
aS'R("R_EX_anhgm_e__Rev")'
p573
aS'R("R_HEXt2rpp")'
p574
aS'R("R_FALDtpp")'
p575
aS'R("R_EX_ocdcea_e_")'
p576
aS'R("R_ARBt2rpp_Rev")'
p577
aS'R("R_4PEPTtex")'
p578
aS'R("R_G1SAT")'
p579
aS'R("R_EX_fe3hox_un_e_")'
p580
aS'R("R_CYStex")'
p581
aS'R("R_EX_ile_L_e__Rev")'
p582
aS'R("R_EX_mg2_e__Rev")'
p583
aS'R("R_SHK3Dr")'
p584
aS'R("R_L_LACtex")'
p585
aS'R("R_23CGMPtex_Rev")'
p586
aS'R("R_EX_tungs_e__Rev")'
p587
aS'R("R_EX_gly_e_")'
p588
aS'R("R_FUCtex_Rev")'
p589
aS'R("R_EX_4hoxpacd_e_")'
p590
aS'R("R_EX_acald_e_")'
p591
aS'R("R_ECOAH2")'
p592
aS'R("R_EX_gbbtn_e_")'
p593
aS'R("R_12PPDStpp_Rev")'
p594
aS'R("R_EX_colipa_e__Rev")'
p595
aS'R("R_TREtex_Rev")'
p596
aS'R("R_EX_mobd_e__Rev")'
p597
aS'R("R_ASNtex")'
p598
aS'R("R_EX_arab_L_e_")'
p599
aS'R("R_EX_cbi_e__Rev")'
p600
aS'R("R_5DGLCNtex_Rev")'
p601
aS'R("R_EX_acgam1p_e_")'
p602
aS'R("R_EX_h_e_")'
p603
aS'R("R_EX_dms_e__Rev")'
p604
aS'R("R_EX_thym_e_")'
p605
aS'R("R_SO3tex_Rev")'
p606
aS'R("R_MTRI_Rev")'
p607
aS'R("R_PPM_Rev")'
p608
aS'R("R_EX_ppa_e_")'
p609
aS'R("R_CLPNS181pp")'
p610
aS'R("R_EX_gmp_e__Rev")'
p611
aS'R("R_FCLPA")'
p612
aS'R("R_MNtex_Rev")'
p613
aS'R("R_EX_progly_e_")'
p614
aS'R("R_EX_ascb_L_e__Rev")'
p615
aS'R("R_TKT2_Rev")'
p616
aS'R("R_EX_melib_e__Rev")'
p617
aS'R("R_EX_gal1p_e_")'
p618
aS'R("R_GAMAN6Ptex")'
p619
aS'R("R_SO4tex")'
p620
aS'R("R_PPKr_Rev")'
p621
aS'R("R_EX_xan_e__Rev")'
p622
aS'R("R_EX_ocdca_e__Rev")'
p623
aS'R("R_PYRtex")'
p624
aS'R("R_EX_asp_L_e__Rev")'
p625
aS'R("R_ICHORSi")'
p626
aS'R("R_EX_etha_e_")'
p627
aS'R("R_EX_thrp_e__Rev")'
p628
aS'R("R_GTHOr_Rev")'
p629
aS'R("R_PGMT_Rev")'
p630
aS'R("R_ALAALAr")'
p631
aS'R("R_EX_alltn_e__Rev")'
p632
aS'R("R_EX_glcur_e_")'
p633
aS'R("R_CUtex_Rev")'
p634
aS'R("R_SBTtex_Rev")'
p635
aS'R("R_EX_gal_bD_e_")'
p636
aS'R("R_R5Ptex_Rev")'
p637
aS'R("R_EX_mmet_e_")'
p638
aS'R("R_EX_tartr_L_e_")'
p639
aS'R("R_DAPtex")'
p640
aS'R("R_3OAR60")'
p641
aS'R("R_ASCBtex_Rev")'
p642
aS'R("R_ACALDtex_Rev")'
p643
aS'R("R_EX_idon_L_e_")'
p644
aS'R("R_NDPK3")'
p645
aS'R("R_NH4tpp")'
p646
aS'R("R_PNTOtex_Rev")'
p647
aS'R("R_LCARR_Rev")'
p648
aS'R("R_EX_dcyt_e__Rev")'
p649
aS'R("R_CYANtex")'
p650
aS'R("R_PGMT")'
p651
aS'R("R_ARBt2rpp")'
p652
aS'R("R_EX_3ump_e_")'
p653
aS'R("R_SBTPD")'
p654
aS'R("R_NDPK3_Rev")'
p655
aS'R("R_5DGLCNt2rpp")'
p656
aS'R("R_CRNCAR_Rev")'
p657
aS'R("R_DADK_Rev")'
p658
aS'R("R_EX_feoxam_un_e_")'
p659
aS'R("R_ECOAH3_Rev")'
p660
aS'R("R_DIMPtex")'
p661
aS'R("R_EX_dump_e__Rev")'
p662
aS'R("R_UACGAMtex_Rev")'
p663
aS'R("R_ACOAD4f")'
p664
aS'R("R_EX_g1p_e_")'
p665
aS'R("R_SERt4pp")'
p666
aS'R("R_EX_3hcinnm_e_")'
p667
aS'R("R_EX_orn_e_")'
p668
aS'R("R_EX_so4_e__Rev")'
p669
aS'R("R_EX_mal_D_e_")'
p670
aS'R("R_EX_eca4colipa_e_")'
p671
aS'R("R_ADEtex")'
p672
aS'R("R_GALURtex_Rev")'
p673
aS'R("R_EX_skm_e_")'
p674
aS'R("R_HSDy")'
p675
aS'R("R_EX_glyb_e_")'
p676
aS'R("R_INSTtex_Rev")'
p677
aS'R("R_HPPPNtex_Rev")'
p678
aS'R("R_EX_isetac_e_")'
p679
aS'R("R_EX_acser_e__Rev")'
p680
aS'R("R_EX_rib_D_e_")'
p681
aS'R("R_EX_lcts_e_")'
p682
aS'R("R_PUNP3")'
p683
aS'R("R_PPAtex")'
p684
aS'R("R_MMETtex_Rev")'
p685
aS'R("R_EX_arg_L_e__Rev")'
p686
aS'R("R_R5Ptex")'
p687
aS'R("R_TGBPA")'
p688
aS'R("R_DHAtpp_Rev")'
p689
aS'R("R_FORtex_Rev")'
p690
aS'R("R_AGMtex")'
p691
aS'R("R_GALCTNLtex")'
p692
aS'R("R_LYStex_Rev")'
p693
aS'R("R_EX_damp_e_")'
p694
aS'R("R_EX_all_D_e__Rev")'
p695
aS'R("R_SERt2rpp_Rev")'
p696
aS'R("R_THRPtex")'
p697
aS'R("R_ALCD2x_Rev")'
p698
aS'R("R_EX_tym_e_")'
p699
aS'R("R_ACKr")'
p700
aS'R("R_ASPTA")'
p701
aS'R("R_CYTK1")'
p702
aS'R("R_GAPD_Rev")'
p703
aS'R("R_EX_inost_e_")'
p704
aS'R("R_ETOHtex_Rev")'
p705
aS'R("R_METSOX2tex")'
p706
aS'R("R_EX_dca_e__Rev")'
p707
aS'R("R_METDtex_Rev")'
p708
aS'R("R_EX_ala_D_e_")'
p709
aS'R("R_CRNBTCT_Rev")'
p710
aS'R("R_THMDtex")'
p711
aS'R("R_PTAr_Rev")'
p712
aS'R("R_ASO3tex")'
p713
aS'R("R_ACt2rpp_Rev")'
p714
aS'R("R_LCTStpp")'
p715
aS'R("R_ALATA_L_Rev")'
p716
aS'R("R_G3PStex")'
p717
aS'R("R_EX_ala_L_e_")'
p718
aS'R("R_EX_ala_D_e__Rev")'
p719
aS'R("R_GLNtex")'
p720
aS'R("R_EX_glyc2p_e_")'
p721
aS'R("R_GLUDy_Rev")'
p722
aS'R("R_HXAtex")'
p723
aS'R("R_H2O2tex_Rev")'
p724
aS'R("R_EX_tmao_e_")'
p725
aS'R("R_EX_glyc3p_e__Rev")'
p726
aS'R("R_HIStex_Rev")'
p727
aS'R("R_GAL1Ptex")'
p728
aS'R("R_MELIBtex_Rev")'
p729
aS'R("R_ALLTNtex")'
p730
aS'R("R_PACALDtex_Rev")'
p731
aS'R("R_GLYCtpp_Rev")'
p732
aS'R("R_EX_aso3_e_")'
p733
aS'R("R_EX_arbtn_e_")'
p734
aS'R("R_EX_glyc_e_")'
p735
aS'R("R_EX_amp_e_")'
p736
aS'R("R_EX_fuc_L_e_")'
p737
aS'R("R_EX_feoxam_e__Rev")'
p738
aS'R("R_GGGABADr")'
p739
aS'R("R_PUNP3_Rev")'
p740
aS'R("R_PPAtex_Rev")'
p741
aS'R("R_EX_cu_e_")'
p742
aS'R("R_ECOAH5")'
p743
aS'R("R_EX_gsn_e__Rev")'
p744
aS'R("R_DHORTS_Rev")'
p745
aS'R("R_UDPGLCURtex_Rev")'
p746
aS'R("R_CBMKr_Rev")'
p747
aS'R("R_EX_mg2_e_")'
p748
aS'R("R_URIDK2r")'
p749
aS'R("R_EX_ddca_e_")'
p750
aS'R("R_BUTt2rpp_Rev")'
p751
aS'R("R_ACt4pp")'
p752
aS'R("R_PGK")'
p753
aS'R("R_CYTK2_Rev")'
p754
aS'R("R_12PPDRtex_Rev")'
p755
aS'R("R_EX_gln_L_e__Rev")'
p756
aS'R("R_GUI1")'
p757
aS'R("R_EX_tsul_e__Rev")'
p758
aS'R("R_EX_ser_D_e_")'
p759
aS'R("R_GLYCLTtex")'
p760
aS'R("R_ACALDtpp_Rev")'
p761
aS'R("R_GLCUR1Ptex")'
p762
aS'R("R_EX_k_e_")'
p763
aS'R("R_HXAtex_Rev")'
p764
aS'R("R_ADK3_Rev")'
p765
aS'R("R_EX_fe2_e__Rev")'
p766
aS'R("R_ECOAH7")'
p767
aS'R("R_EX_leu_L_e__Rev")'
p768
aS'R("R_PSCVT_Rev")'
p769
aS'R("R_FRUtex")'
p770
aS'R("R_HYXNtpp")'
p771
aS'R("R_HCINNMtex")'
p772
aS'R("R_EX_succ_e_")'
p773
aS'R("R_EX_g6p_e__Rev")'
p774
aS'R("R_EX_dmso_e_")'
p775
aS'R("R_EX_halipa_e__Rev")'
p776
aS'R("R_EX_dgmp_e__Rev")'
p777
aS'R("R_Htex_Rev")'
p778
aS'R("R_UDPGtex")'
p779
aS'R("R_ALAGLUE")'
p780
aS'R("R_DUMPtex_Rev")'
p781
aS'R("R_METtex")'
p782
aS'R("R_GTPtex_Rev")'
p783
aS'R("R_CO2tpp")'
p784
aS'R("R_EX_gal1p_e__Rev")'
p785
aS'R("R_EX_urea_e_")'
p786
aS'R("R_GLYALDtex_Rev")'
p787
aS'R("R_CU2tex_Rev")'
p788
aS'R("R_GLYALDtpp")'
p789
aS'R("R_EX_hg2_e__Rev")'
p790
aS'R("R_EX_h2s_e__Rev")'
p791
aS'R("R_EX_cit_e_")'
p792
aS'R("R_ACONTa_Rev")'
p793
aS'R("R_EX_rmn_e__Rev")'
p794
aS'R("R_HPYRI_Rev")'
p795
aS'R("R_PERD_Rev")'
p796
aS'R("R_EX_galt_e_")'
p797
aS'R("R_CD2tex_Rev")'
p798
aS'R("R_EX_all_D_e_")'
p799
aS'R("R_EX_g3pg_e_")'
p800
aS'R("R_LCARS_Rev")'
p801
aS'R("R_EX_12ppd_S_e__Rev")'
p802
aS'R("R_Ktex_Rev")'
p803
aS'R("R_12PPDRtex")'
p804
aS'R("R_EX_acac_e__Rev")'
p805
aS'R("R_DDGLCNt2rpp")'
p806
aS'R("R_23CCMPtex_Rev")'
p807
aS'R("R_EX_acgam_e__Rev")'
p808
aS'R("R_PEAMNtex_Rev")'
p809
aS'R("R_ALLTNtex_Rev")'
p810
aS'R("R_EX_23dappa_e__Rev")'
p811
aS'R("R_DTMPK")'
p812
aS'R("R_METSOX1tex_Rev")'
p813
aS'R("R_EX_glyb_e__Rev")'
p814
aS'R("R_NI2tex_Rev")'
p815
aS'R("R_TYRTA_Rev")'
p816
aS'R("R_ETOHt2rpp")'
p817
aS'R("R_LEUt2rpp")'
p818
aS'R("R_Zn2tex_Rev")'
p819
aS'R("R_SERtex")'
p820
aS'R("R_EX_dha_e_")'
p821
aS'R("R_EX_ac_e_")'
p822
aS'R("R_XYLUtex")'
p823
aS'R("R_EX_lys_L_e_")'
p824
aS'R("R_SERAT_Rev")'
p825
aS'R("R_VPAMT")'
p826
aS'R("R_EX_metsox_S_L_e__Rev")'
p827
aS'R("R_GMPtex")'
p828
aS'R("R_EX_cd2_e_")'
p829
aS'R("R_UAG2E")'
p830
aS'R("R_VALtex")'
p831
aS'R("R_FUCtpp")'
p832
aS'R("R_RIBtex_Rev")'
p833
aS'R("R_EX_akg_e__Rev")'
p834
aS'R("R_12PPDRtpp")'
p835
aS'R("R_EX_gtp_e__Rev")'
p836
aS'R("R_EX_pi_e_")'
p837
aS'R("R_EX_metsox_S_L_e_")'
p838
aS'R("R_EX_phe_L_e__Rev")'
p839
aS'R("R_EX_glu_L_e__Rev")'
p840
aS'R("R_26DAHtex")'
p841
aS'R("R_MLTP3")'
p842
aS'R("R_EX_h2s_e_")'
p843
aS'R("R_DDPGALA")'
p844
aS'R("R_THRtex")'
p845
aS'R("R_5DGLCNt2rpp_Rev")'
p846
aS'R("R_EX_mobd_e_")'
p847
aS'R("R_IDONt2rpp_Rev")'
p848
aS'R("R_TAURtex_Rev")'
p849
aS'R("R_DDGLCNt2rpp_Rev")'
p850
aS'R("R_EX_tcynt_e__Rev")'
p851
aS'R("R_EX_nmn_e__Rev")'
p852
aS'R("R_EX_ppa_e__Rev")'
p853
aS'R("R_Ktex")'
p854
aS'R("R_EX_gthrd_e_")'
p855
aS'R("R_EX_gbbtn_e__Rev")'
p856
aS'R("R_OCBT")'
p857
aS'R("R_EX_3gmp_e_")'
p858
aS'R("R_HPPPNtex")'
p859
aS'R("R_EX_uri_e_")'
p860
aS'R("R_GLYC3Ptex_Rev")'
p861
aS'R("R_ICHORS_Rev")'
p862
aS'R("R_EX_man6p_e_")'
p863
aS'R("R_TKT2")'
p864
aS'R("R_TRPAS2")'
p865
aS'R("R_GALCTNtex")'
p866
aS'R("R_EX_pheme_e_")'
p867
aS'R("R_EX_mnl_e_")'
p868
aS'R("R_HPYRRx")'
p869
aS'R("R_EX_glyc3p_e_")'
p870
aS'R("R_EX_gtp_e_")'
p871
aS'R("R_GLCtex_Rev")'
p872
aS'R("R_ACOTA")'
p873
aS'R("R_PSERtex")'
p874
aS'R("R_CSNtex")'
p875
aS'R("R_DOPAtex_Rev")'
p876
aS'R("R_ILETA_Rev")'
p877
aS'R("R_EX_3amp_e__Rev")'
p878
aS'R("R_LCARS")'
p879
aS'R("R_HISt2rpp_Rev")'
p880
aS'R("R_PTRCORNt7pp")'
p881
aS'R("R_EX_12ppd_R_e_")'
p882
aS'R("R_UREAtpp")'
p883
aS'R("R_G1Ptex")'
p884
aS'R("R_EX_LalaDgluMdapDala_e_")'
p885
aS'R("R_CRNCBCT_Rev")'
p886
aS'R("R_GLUtex")'
p887
aS'R("R_HYXNtex")'
p888
aS'R("R_EX_cl_e__Rev")'
p889
aS'R("R_EX_ump_e_")'
p890
aS'R("R_EX_dcmp_e__Rev")'
p891
aS'R("R_EX_fe3dcit_e_")'
p892
aS'R("R_EX_3hpppn_e_")'
p893
aS'R("R_EX_xyl_D_e_")'
p894
aS'R("R_COBALT2tex_Rev")'
p895
aS'R("R_EX_mn2_e_")'
p896
aS'R("R_EX_manglyc_e_")'
p897
aS'R("R_CYNTtex_Rev")'
p898
aS'R("R_ACOAD1f")'
p899
aS'R("R_EX_gal_bD_e__Rev")'
p900
aS'R("R_EX_34dhpac_e__Rev")'
p901
aS'R("R_ECOAH4")'
p902
aS'R("R_EX_ala_B_e__Rev")'
p903
aS'R("R_EX_peamn_e__Rev")'
p904
aS'R("R_CYSDtex")'
p905
aS'R("R_DUMPtex")'
p906
aS'R("R_H2Otpp_Rev")'
p907
aS'R("R_EX_acgal1p_e__Rev")'
p908
aS'R("R_EX_udpgal_e_")'
p909
aS'R("R_EX_dtmp_e__Rev")'
p910
aS'R("R_G3PItex")'
p911
aS'R("R_LYXtex")'
p912
aS'R("R_URAt2pp")'
p913
aS'R("R_EX_kdo2lipid4_e_")'
p914
aS'R("R_ADNt2rpp_Rev")'
p915
aS'R("R_TRSARr_Rev")'
p916
aS'R("R_SDPTA")'
p917
aS'R("R_ALLtex")'
p918
aS'R("R_ALCD19")'
p919
aS'R("R_SPMDtex_Rev")'
p920
aS'R("R_G3PCtex_Rev")'
p921
aS'R("R_FALDtpp_Rev")'
p922
aS'R("R_GALBDtex_Rev")'
p923
aS'R("R_H2Otpp")'
p924
aS'R("R_PUNP4")'
p925
aS'R("R_EX_eca4colipa_e__Rev")'
p926
aS'R("R_EX_g3pi_e__Rev")'
p927
aS'R("R_EX_cytd_e_")'
p928
aS'R("R_EX_ppt_e__Rev")'
p929
aS'R("R_TMDPP")'
p930
aS'R("R_BUTtex")'
p931
aS'R("R_THRtex_Rev")'
p932
aS'R("R_CMPtex_Rev")'
p933
aS'R("R_FUMtex")'
p934
aS'R("R_PPK2r")'
p935
aS'R("R_EX_o2_e_")'
p936
aS'R("R_PUNP1_Rev")'
p937
aS'R("R_EX_galctn_D_e_")'
p938
aS'R("R_ICDHyr")'
p939
aS'R("R_EX_r5p_e_")'
p940
aS'R("R_LYXtex_Rev")'
p941
aS'R("R_ALCD19_Rev")'
p942
aS'R("R_EX_fe2_e_")'
p943
aS'R("R_TALA")'
p944
aS'R("R_PGK_Rev")'
p945
aS'R("R_THRt2rpp")'
p946
aS'R("R_TPI_Rev")'
p947
aS'R("R_3AMPtex")'
p948
aS'R("R_EX_enter_e__Rev")'
p949
aS'R("R_GHMT2r")'
p950
aS'R("R_CLPNS181pp_Rev")'
p951
aS'R("R_CHLtex_Rev")'
p952
aS'R("R_CTBTt2rpp_Rev")'
p953
aS'R("R_ILEtex_Rev")'
p954
aS'R("R_ACOAD5f_Rev")'
p955
aS'R("R_GLCURtex")'
p956
aS'R("R_EX_dgsn_e_")'
p957
aS'R("R_EX_tyr_L_e_")'
p958
aS'R("R_EX_3cmp_e_")'
p959
aS'R("R_DHBD")'
p960
aS'R("R_EX_acmana_e_")'
p961
aS'R("R_EX_g3ps_e_")'
p962
aS'R("R_PRMICI_Rev")'
p963
aS'R("R_UMPtex")'
p964
aS'R("R_EX_man_e_")'
p965
aS'R("R_EX_pppn_e_")'
p966
aS'R("R_GALCTtex")'
p967
aS'R("R_METSOX1tex")'
p968
aS'R("R_SDPTA_Rev")'
p969
aS'R("R_EX_acnam_e_")'
p970
aS'R("R_GALURt2rpp")'
p971
aS'R("R_NH4tpp_Rev")'
p972
aS'R("R_ACS")'
p973
aS'R("R_CA2t3pp")'
p974
aS'R("R_PSCVT")'
p975
aS'R("R_PGI")'
p976
aS'R("R_ACGAM1Ptex_Rev")'
p977
aS'R("R_XANtex_Rev")'
p978
aS'R("R_EX_hdca_e_")'
p979
aS'R("R_EX_maltpt_e__Rev")'
p980
aS'R("R_DCMPtex")'
p981
aS'R("R_GLUDy")'
p982
aS'R("R_23CAMPtex_Rev")'
p983
aS'R("R_GUI1_Rev")'
p984
aS'R("R_3AMPtex_Rev")'
p985
aS'R("R_EX_so4_e_")'
p986
aS'R("R_EX_glcur_e__Rev")'
p987
aS'R("R_EX_gam6p_e_")'
p988
aS'R("R_TAGURr_Rev")'
p989
aS'R("R_DGSNtex_Rev")'
p990
aS'R("R_NMNtex_Rev")'
p991
aS'R("R_EX_acolipa_e_")'
p992
aS'R("R_FUM_Rev")'
p993
aS'R("R_CLtex")'
p994
aS'R("R_NDPK1")'
p995
aS'R("R_EX_3amp_e_")'
p996
aS'R("R_ASPK_Rev")'
p997
aS'R("R_UAGAAT")'
p998
aS'R("R_EX_no3_e__Rev")'
p999
aS'R("R_SO2tex")'
p1000
aS'R("R_ETHSO3tex_Rev")'
p1001
aS'R("R_TYRPtex")'
p1002
aS'R("R_EX_glcur1p_e_")'
p1003
aS'R("R_EX_val_L_e_")'
p1004
aS'R("R_EX_adocbl_e__Rev")'
p1005
aS'R("R_SERtex_Rev")'
p1006
aS'R("R_ACGAL1Ptex")'
p1007
aS'R("R_EX_minohp_e__Rev")'
p1008
aS'R("R_EX_mnl_e__Rev")'
p1009
aS'R("R_ECOAH1")'
p1010
aS'R("R_NACtex")'
p1011
aS'R("R_ABUTtex")'
p1012
aS'R("R_EX_spmd_e_")'
p1013
aS'R("R_N2Otpp")'
p1014
aS'R("R_ACGAtex_Rev")'
p1015
aS'R("R_AKGtex")'
p1016
aS'R("R_NO2tex_Rev")'
p1017
aS'R("R_MELIBtex")'
p1018
aS'R("R_T2DECAI")'
p1019
aS'R("R_MOBDtex")'
p1020
aS'R("R_UDPGLCURtex")'
p1021
aS'R("R_ARGAGMt7pp_Rev")'
p1022
aS'R("R_DAMPtex_Rev")'
p1023
aS'R("R_PYRt2rpp")'
p1024
aS'R("R_EX_progly_e__Rev")'
p1025
aS'R("R_TAURtex")'
p1026
aS'R("R_PGM_Rev")'
p1027
aS'R("R_PPTtex")'
p1028
aS'R("R_N2Otex_Rev")'
p1029
aS'R("R_GLCURt2rpp")'
p1030
aS'R("R_O2tpp_Rev")'
p1031
aS'R("R_EX_lipa_cold_e__Rev")'
p1032
aS'R("R_AGMtex_Rev")'
p1033
aS'R("R_EX_ins_e__Rev")'
p1034
aS'R("R_GLCURtex_Rev")'
p1035
aS'R("R_EX_ppal_e_")'
p1036
aS'R("R_ACOAD6f_Rev")'
p1037
aS'R("R_EX_cys_L_e__Rev")'
p1038
aS'R("R_EX_uacgam_e_")'
p1039
aS'R("R_DADK")'
p1040
aS'R("R_SHK3Dr_Rev")'
p1041
aS'R("R_EX_acgal_e__Rev")'
p1042
aS'R("R_ALATA_L")'
p1043
aS'R("R_NDPK5_Rev")'
p1044
aS'R("R_DTMPtex")'
p1045
aS'R("R_3GMPtex")'
p1046
aS'R("R_IPPMIa_Rev")'
p1047
aS'R("R_O2Stex")'
p1048
aS'R("R_EX_ala_B_e_")'
p1049
aS'R("R_LYStex")'
p1050
aS'R("R_EX_o16a4colipa_e__Rev")'
p1051
aS'R("R_EX_hom_L_e__Rev")'
p1052
aS'R("R_URAtex_Rev")'
p1053
aS'R("R_EX_cyan_e__Rev")'
p1054
aS'R("R_MLTP1")'
p1055
aS'R("R_EX_g3pe_e__Rev")'
p1056
aS'R("R_23CGMPtex")'
p1057
aS'R("R_DMSOtex_Rev")'
p1058
aS'R("R_PUNP7")'
p1059
aS'R("R_EX_psclys_e__Rev")'
p1060
aS'R("R_EX_thrp_e_")'
p1061
aS'R("R_SUCOAS_Rev")'
p1062
aS'R("R_EX_xyl_D_e__Rev")'
p1063
aS'R("R_SUCRtex_Rev")'
p1064
aS'R("R_HOMtex")'
p1065
aS'R("R_G3PStex_Rev")'
p1066
aS'R("R_TALA_Rev")'
p1067
aS'R("R_EX_pi_e__Rev")'
p1068
aS'R("R_FE2tex")'
p1069
aS'R("R_EX_glcn_e__Rev")'
p1070
aS'R("R_EX_fum_e__Rev")'
p1071
aS'R("R_EX_so2_e__Rev")'
p1072
aS'R("R_GK1")'
p1073
aS'R("R_MTRI")'
p1074
aS'R("R_XYLtex_Rev")'
p1075
aS'R("R_EX_dad_2_e__Rev")'
p1076
aS'R("R_AKGt2rpp_Rev")'
p1077
aS'R("R_EX_ura_e_")'
p1078
aS'R("R_EX_h_e__Rev")'
p1079
aS'R("R_PIt2rpp")'
p1080
aS'R("R_DHAtex")'
p1081
aS'R("R_SUCFUMtpp_Rev")'
p1082
aS'R("R_EX_chol_e__Rev")'
p1083
aS'R("R_ECOAH8_Rev")'
p1084
aS'R("R_23CUMPtex_Rev")'
p1085
aS'R("R_CLtex_Rev")'
p1086
aS'R("R_RPE_Rev")'
p1087
aS'R("R_A5PISO_Rev")'
p1088
aS'R("R_TSULtex")'
p1089
aS'R("R_PPPNt2rpp")'
p1090
aS'R("R_23CCMPtex")'
p1091
aS'R("R_EX_zn2_e_")'
p1092
aS'R("R_EX_imp_e__Rev")'
p1093
aS'R("R_FCLPA_Rev")'
p1094
aS'R("R_UGLT_Rev")'
p1095
aS'R("R_ALLPI_Rev")'
p1096
aS'R("R_BUTSO3tex")'
p1097
aS'R("R_EX_5dglcn_e_")'
p1098
aS'R("R_F6Ptex")'
p1099
aS'R("R_EX_cpgn_e__Rev")'
p1100
aS'R("R_EX_ump_e__Rev")'
p1101
aS'R("R_GLGC")'
p1102
aS'R("R_THMDt2pp")'
p1103
aS'R("R_FRUtex_Rev")'
p1104
aS'R("R_ASAD")'
p1105
aS'R("R_LCTStpp_Rev")'
p1106
aS'R("R_PHEtex_Rev")'
p1107
aS'R("R_IDOND_Rev")'
p1108
aS'R("R_EX_spmd_e__Rev")'
p1109
aS'R("R_EX_dcmp_e_")'
p1110
aS'R("R_EX_xylu_L_e__Rev")'
p1111
aS'R("R_ALLPI")'
p1112
aS'R("R_EX_adocbl_e_")'
p1113
aS'R("R_UDPKAAT")'
p1114
aS'R("R_CRNDt2rpp_Rev")'
p1115
aS'R("R_EX_galctn_D_e__Rev")'
p1116
aS'R("R_CU2tex")'
p1117
aS'R("R_GTHOXtex")'
p1118
aS'R("R_MSO3tex")'
p1119
aS'R("R_MLTP2_Rev")'
p1120
aS'R("R_EX_fe3hox_un_e__Rev")'
p1121
aS'R("R_COBALT2tex")'
p1122
aS'R("R_PROtex_Rev")'
p1123
aS'R("R_MANAO_Rev")'
p1124
aS'R("R_GLTPD")'
p1125
aS'R("R_EX_thymd_e_")'
p1126
aS'R("R_H2Otex_Rev")'
p1127
aS'R("R_EX_ttdca_e__Rev")'
p1128
aS'R("R_H2tpp")'
p1129
aS'R("R_CYTK2")'
p1130
aS'R("R_KARA1_Rev")'
p1131
aS'R("R_GAL1Ptex_Rev")'
p1132
aS'R("R_MG2t3_2pp_Rev")'
p1133
aS'R("R_CITtex_Rev")'
p1134
aS'R("R_PIt2rpp_Rev")'
p1135
aS'R("R_TRPtex_Rev")'
p1136
aS'R("R_EX_halipa_e_")'
p1137
aS'R("R_EX_sbt_D_e__Rev")'
p1138
aS'R("R_ILETA")'
p1139
aS'R("R_DOPAtex")'
p1140
aS'R("R_XYLI1")'
p1141
aS'R("R_DTMPK_Rev")'
p1142
aS'R("R_FEROpp")'
p1143
aS'R("R_IMPC_Rev")'
p1144
aS'R("R_CA2tex")'
p1145
aS'R("R_ACGALtex")'
p1146
aS'R("R_ECOAH6")'
p1147
aS'R("R_DAMPtex")'
p1148
aS'R("R_TSULtex_Rev")'
p1149
aS'R("R_NO3tex")'
p1150
aS'R("R_EX_hg2_e_")'
p1151
aS'R("R_INSTtex")'
p1152
aS'R("R_GUI2")'
p1153
aS'R("R_MALTATr_Rev")'
p1154
aS'R("R_SBTPD_Rev")'
p1155
aS'R("R_MME_Rev")'
p1156
aS'R("R_CMPtex")'
p1157
aS'R("R_NDPK8_Rev")'
p1158
aS'R("R_NACtex_Rev")'
p1159
aS'R("R_HCINNMt2rpp")'
p1160
aS'R("R_MNLtex_Rev")'
p1161
aS'R("R_PMANM_Rev")'
p1162
aS'R("R_3OAR120")'
p1163
aS'R("R_HCO3E")'
p1164
aS'R("R_GUAtex")'
p1165
aS'R("R_ARGSL")'
p1166
aS'R("R_VALTA_Rev")'
p1167
aS'R("R_THRt2rpp_Rev")'
p1168
aS'R("R_EX_nmn_e_")'
p1169
aS'R("R_FUM")'
p1170
aS'R("R_ADSL2r_Rev")'
p1171
aS'R("R_ATPS4rpp_Rev")'
p1172
aS'R("R_GLCP")'
p1173
aS'R("R_T2DECAI_Rev")'
p1174
aS'R("R_ALLTNt2rpp")'
p1175
aS'R("R_EX_frulys_e__Rev")'
p1176
aS'R("R_EX_23ccmp_e_")'
p1177
aS'R("R_L_LACt2rpp_Rev")'
p1178
aS'R("R_DCYTtex_Rev")'
p1179
aS'R("R_O2Stex_Rev")'
p1180
aS'R("R_OCTAtex_Rev")'
p1181
aS'R("R_GDPtex_Rev")'
p1182
aS'R("R_H2Stex_Rev")'
p1183
aS'R("R_PRPPS")'
p1184
aS'R("R_EX_ag_e__Rev")'
p1185
aS'R("R_O2tex")'
p1186
aS'R("R_EX_ocdcea_e__Rev")'
p1187
aS'R("R_EX_tre_e__Rev")'
p1188
aS'R("R_EX_enter_e_")'
p1189
aS'R("R_EX_fuc_L_e__Rev")'
p1190
aS'R("R_H2tex_Rev")'
p1191
aS'R("R_GUAtpp")'
p1192
aS'R("R_EX_dtmp_e_")'
p1193
aS'R("R_FRUURtex_Rev")'
p1194
aS'R("R_UACGAMtex")'
p1195
aS'R("R_3UMPtex_Rev")'
p1196
aS'R("R_ACCOAL")'
p1197
aS'R("R_IPPMIb_Rev")'
p1198
aS'R("R_EX_n2o_e_")'
p1199
aS'R("R_EX_n2o_e__Rev")'
p1200
aS'R("R_N2Otpp_Rev")'
p1201
aS'R("R_LEUtex")'
p1202
aS'R("R_ACSERtex")'
p1203
aS'R("R_EX_5dglcn_e__Rev")'
p1204
aS'R("R_INSt2rpp")'
p1205
aS'R("R_THMDtex_Rev")'
p1206
aS'R("R_MANtex_Rev")'
p1207
aS'R("R_FCI")'
p1208
aS'R("R_ALAR")'
p1209
aS'R("R_EX_thm_e_")'
p1210
aS'R("R_UREAtex_Rev")'
p1211
aS'R("R_LSERDHr_Rev")'
p1212
aS'R("R_EX_glc_e_")'
p1213
aS'R("R_EX_arbtn_fe3_e_")'
p1214
aS'R("R_PItex")'
p1215
aS'R("R_NOtpp_Rev")'
p1216
aS'R("R_EX_g1p_e__Rev")'
p1217
aS'R("R_SUCCtex")'
p1218
aS'R("R_MNtex")'
p1219
aS'R("R_MLTP1_Rev")'
p1220
aS'R("R_CHLtex")'
p1221
aS'R("R_UDPACGALtex")'
p1222
aS'R("R_AGPR_Rev")'
p1223
aS'R("R_ARGORNt7pp")'
p1224
aS'R("R_ASNtex_Rev")'
p1225
aS'R("R_EX_cd2_e__Rev")'
p1226
aS'R("R_EX_cmp_e_")'
p1227
aS'R("R_AKGt2rpp")'
p1228
aS'R("R_D_LACt2pp")'
p1229
aS'R("R_EX_gam6p_e__Rev")'
p1230
aS'R("R_UREAtpp_Rev")'
p1231
aS'R("R_CYTDtex")'
p1232
aS'R("R_EX_peamn_e_")'
p1233
aS'R("R_EX_4abut_e__Rev")'
p1234
aS'R("R_L_LACtex_Rev")'
p1235
aS'R("R_VALt2rpp_Rev")'
p1236
aS'R("R_EX_udpgal_e__Rev")'
p1237
aS'R("R_GALCTt2rpp")'
p1238
aS'R("R_EX_dad_2_e_")'
p1239
aS'R("R_EX_butso3_e__Rev")'
p1240
aS'R("R_ACOAD6f")'
p1241
aS'R("R_LCARR")'
p1242
aS'R("R_EX_glcr_e__Rev")'
p1243
aS'R("R_PNTOtex")'
p1244
aS'R("R_EX_pyr_e_")'
p1245
aS'R("R_3OAR140")'
p1246
aS'R("R_EX_dms_e_")'
p1247
aS'R("R_PPTtex_Rev")'
p1248
aS'R("R_EX_dha_e__Rev")'
p1249
aS'R("R_DHFR")'
p1250
aS'R("R_EX_galct_D_e_")'
p1251
aS'R("R_ADK1_Rev")'
p1252
aS'R("R_EX_leu_L_e_")'
p1253
aS'R("R_FRUURtex")'
p1254
aS'R("R_EX_fe3dcit_e__Rev")'
p1255
aS'R("R_EX_ura_e__Rev")'
p1256
aS'R("R_EX_glyald_e__Rev")'
p1257
aS'R("R_EX_gam_e_")'
p1258
aS'R("R_AMPtex")'
p1259
aS'R("R_EX_amp_e__Rev")'
p1260
aS'R("R_EX_cpgn_un_e__Rev")'
p1261
aS'R("R_EX_ser_D_e__Rev")'
p1262
aS'R("R_EX_ethso3_e__Rev")'
p1263
aS'R("R_3PEPTtex")'
p1264
aS'R("R_GLCNtex_Rev")'
p1265
aS'R("R_EX_cl_e_")'
p1266
aS'R("R_MANAO")'
p1267
aS'R("R_GALCTt2rpp_Rev")'
p1268
aS'R("R_GLYCLTtex_Rev")'
p1269
aS'R("R_EX_acac_e_")'
p1270
aS'R("R_EX_gdp_e_")'
p1271
aS'R("R_EX_glcn_e_")'
p1272
aS'R("R_ACACt2pp")'
p1273
aS'R("R_EX_acmum_e_")'
p1274
aS'R("R_ANHGMtex_Rev")'
p1275
aS'R("R_CRNtex")'
p1276
aS'R("R_FBA")'
p1277
aS'R("R_CO2tex_Rev")'
p1278
aS'R("R_GLCtex")'
p1279
aS'R("R_EX_gsn_e_")'
p1280
aS'R("R_MTHFC_Rev")'
p1281
aS'R("R_EX_co2_e_")'
p1282
aS'R("R_XYLI2")'
p1283
aS'R("R_GSNtex")'
p1284
aS'R("R_EX_ins_e_")'
p1285
aS'R("R_EX_gua_e_")'
p1286
aS'R("R_ILEt2rpp_Rev")'
p1287
aS'R("R_EX_phe_L_e_")'
p1288
aS'R("R_GLYAT_Rev")'
p1289
aS'R("R_PYNP2r_Rev")'
p1290
aS'R("R_EX_dimp_e_")'
p1291
aS'R("R_AICART")'
p1292
aS'R("R_ACNAMtex_Rev")'
p1293
aS'R("R_PUNP5")'
p1294
aS'R("R_PPM2_Rev")'
p1295
aS'R("R_EX_ascb_L_e_")'
p1296
aS'R("R_G3PD2")'
p1297
aS'R("R_Htex")'
p1298
aS'R("R_MDH_Rev")'
p1299
aS'R("R_EX_gly_e__Rev")'
p1300
aS'R("R_ARGtex")'
p1301
aS'R("R_3OAR140_Rev")'
p1302
aS'R("R_GLYCLTt2rpp")'
p1303
aS'R("R_EX_his_L_e_")'
p1304
aS'R("R_DDGLCNtex_Rev")'
p1305
aS'R("R_CYTDt2rpp_Rev")'
p1306
aS'R("R_EX_26dap_M_e__Rev")'
p1307
aS'R("R_PGAMT_Rev")'
p1308
aS'R("R_EX_crn_e_")'
p1309
aS'R("R_PPPNt2rpp_Rev")'
p1310
aS'R("R_DALAtex")'
p1311
aS'R("R_GAMtex")'
p1312
aS'R("R_EX_ser_L_e_")'
p1313
aS'R("R_ALLTNt2rpp_Rev")'
p1314
aS'R("R_GLYAT")'
p1315
aS'R("R_MANGLYCtex_Rev")'
p1316
aS'R("R_PERD")'
p1317
aS'R("R_ECOAH6_Rev")'
p1318
aS'R("R_EX_cu2_e_")'
p1319
aS'R("R_ASCBtex")'
p1320
aS'R("R_ACALDtex")'
p1321
aS'R("R_CLPNS140pp")'
p1322
aS'R("R_PROGLYtex")'
p1323
aS'R("R_GAMtex_Rev")'
p1324
aS'R("R_EX_his_L_e__Rev")'
p1325
aS'R("R_GARFT")'
p1326
aS'R("R_PUNP2")'
p1327
aS'R("R_ACOAD3f")'
p1328
aS'R("R_GLYC2Ptex")'
p1329
aS'R("R_GLYC2Ptex_Rev")'
p1330
aS'R("R_RIBtex")'
p1331
aS'R("R_EX_butso3_e_")'
p1332
aS'R("R_RMI")'
p1333
aS'R("R_ORPT_Rev")'
p1334
aS'R("R_EX_feoxam_un_e__Rev")'
p1335
aS'R("R_3OAR100_Rev")'
p1336
aS'R("R_EX_hxan_e__Rev")'
p1337
aS'R("R_EX_fum_e_")'
p1338
aS'R("R_PMANM")'
p1339
aS'R("R_EX_tre_e_")'
p1340
aS'R("R_D_LACt2pp_Rev")'
p1341
aS'R("R_EX_ade_e_")'
p1342
aS'R("R_EX_fecrm_e__Rev")'
p1343
aS'R("R_TRPAS2_Rev")'
p1344
aS'R("R_URItex")'
p1345
aS'R("R_DGMPtex_Rev")'
p1346
aS'R("R_EX_tyr_L_e__Rev")'
p1347
aS'R("R_EX_glyclt_e_")'
p1348
aS'R("R_EX_4hoxpacd_e__Rev")'
p1349
aS'R("R_AMAOTr_Rev")'
p1350
aS'R("R_ADK1")'
p1351
aS'R("R_PEAMNtex")'
p1352
aS'R("R_XANtpp_Rev")'
p1353
aS'R("R_CRNtex_Rev")'
p1354
aS'R("R_ADNtex")'
p1355
aS'R("R_G3PItex_Rev")'
p1356
aS'R("R_HG2tex")'
p1357
aS'R("R_SERASr_Rev")'
p1358
aS'R("R_EX_tma_e__Rev")'
p1359
aS'R("R_EX_23camp_e_")'
p1360
aS'R("R_ATPS4rpp")'
p1361
aS'R("R_ACALD_Rev")'
p1362
aS'R("R_EX_ca2_e_")'
p1363
aS'R("R_GHMT2r_Rev")'
p1364
aS'R("R_FALGTHLs")'
p1365
aS'R("R_RMPA_Rev")'
p1366
aS'R("R_SO2tpp_Rev")'
p1367
aS'R("R_F6Ptex_Rev")'
p1368
aS'R("R_ADNt2pp")'
p1369
aS'R("R_CYTDt2pp")'
p1370
aS'R("R_EX_dgmp_e_")'
p1371
aS'R("R_ACGAM1Ptex")'
p1372
aS'R("R_GLUt4pp")'
p1373
aS'R("R_ARGORNt7pp_Rev")'
p1374
aS'R("R_UDPACGALtex_Rev")'
p1375
aS'R("R_ADK4_Rev")'
p1376
aS'R("R_ACONTb_Rev")'
p1377
aS'R("R_CLPNS180pp_Rev")'
p1378
aS'R("R_URAt2rpp_Rev")'
p1379
aS'R("R_F6PA_Rev")'
p1380
aS'R("R_ORNtex_Rev")'
p1381
aS'R("R_EX_15dap_e__Rev")'
p1382
aS'R("R_XTSNt2rpp_Rev")'
p1383
aS'R("R_HPPPNt2rpp")'
p1384
aS'R("R_ALAR_Rev")'
p1385
aS'R("R_G3PCtex")'
p1386
aS'R("R_NOtex")'
p1387
aS'R("R_SO2tpp")'
p1388
aS'R("R_TPI")'
p1389
aS'R("R_EX_cu_e__Rev")'
p1390
aS'R("R_GLYCAt2rpp")'
p1391
aS'R("R_TUNGStex_Rev")'
p1392
aS'R("R_FALDH2")'
p1393
aS'R("R_GALKr")'
p1394
aS'R("R_EX_lcts_e__Rev")'
p1395
aS'R("R_EX_trp_L_e_")'
p1396
aS'R("R_AMANAPEr_Rev")'
p1397
aS'R("R_EX_pacald_e__Rev")'
p1398
aS'R("R_AMPtex_Rev")'
p1399
aS'R("R_EX_23camp_e__Rev")'
p1400
aS'R("R_EX_o2s_e_")'
p1401
aS'R("R_EX_LalaDgluMdapDala_e__Rev")'
p1402
aS'R("R_CLPNS160pp")'
p1403
aS'R("R_NO2t2rpp_Rev")'
p1404
aS'R("R_INSt2pp")'
p1405
aS'R("R_PTRCORNt7pp_Rev")'
p1406
aS'R("R_MOBDtex_Rev")'
p1407
aS'R("R_OROTtex")'
p1408
aS'R("R_DCAtex")'
p1409
aS'R("R_EX_thr_L_e_")'
p1410
aS'R("R_EX_12ppd_R_e__Rev")'
p1411
aS'R("R_EX_xtsn_e__Rev")'
p1412
aS'R("R_G6Ptex_Rev")'
p1413
aS'R("R_GMPtex_Rev")'
p1414
aS'R("R_RBP4E")'
p1415
aS'R("R_PPAKr")'
p1416
aS'R("R_UDPG4E")'
p1417
aS'R("R_RMPA")'
p1418
aS'R("R_EX_4abut_e_")'
p1419
aS'R("R_EX_indole_e_")'
p1420
aS'R("R_EX_minohp_e_")'
p1421
aS'R("R_UDPGALtex")'
p1422
aS'R("R_4HOXPACDtex")'
p1423
aS'R("R_CRNCAR")'
p1424
aS'R("R_DURItex_Rev")'
p1425
aS'R("R_UDPGtex_Rev")'
p1426
aS'R("R_ACOATA_Rev")'
p1427
aS'R("R_TYRtex_Rev")'
p1428
aS'R("R_EX_etha_e__Rev")'
p1429
aS'R("R_XYLtex")'
p1430
aS'R("R_EX_gua_e__Rev")'
p1431
aS'R("R_ECOAH4_Rev")'
p1432
aS'R("R_PPALtpp")'
p1433
aS'R("R_EX_fald_e_")'
p1434
aS'R("R_HOMtex_Rev")'
p1435
aS'R("R_KARA2_Rev")'
p1436
aS'R("R_EX_ala_L_e__Rev")'
p1437
aS'R("R_O2tpp")'
p1438
aS'R("R_EX_glc_e__Rev")'
p1439
aS'R("R_CTBTt2rpp")'
p1440
aS'R("R_HG2tex_Rev")'
p1441
aS'R("R_EX_tma_e_")'
p1442
aS'R("R_EX_hdca_e__Rev")'
p1443
aS'R("R_EX_acser_e_")'
p1444
aS'R("R_MTHFD_Rev")'
p1445
aS'R("R_VALt2rpp")'
p1446
aS'R("R_MALtex")'
p1447
aS'R("R_SBTtex")'
p1448
aS'R("R_TYRt2rpp_Rev")'
p1449
aS'R("R_EX_lac_D_e__Rev")'
p1450
aS'R("R_ETHAtex")'
p1451
aS'R("R_EX_met_L_e_")'
p1452
aS'R("R_EX_man_e__Rev")'
p1453
aS'R("R_HPPPNt2rpp_Rev")'
p1454
aS'R("R_KARA1")'
p1455
aS'R("R_GLYALDtpp_Rev")'
p1456
aS'R("R_ILEt2rpp")'
p1457
aS'R("R_SERASr")'
p1458
aS'R("R_CITtex")'
p1459
aS'R("R_HEXt2rpp_Rev")'
p1460
aS'R("R_GK1_Rev")'
p1461
aS'R("R_VALTA")'
p1462
aS'R("R_EX_acmana_e__Rev")'
p1463
aS'R("R_RBP4E_Rev")'
p1464
aS'R("R_O2tex_Rev")'
p1465
aS'R("R_EX_melib_e_")'
p1466
aS'R("R_EX_lac_L_e_")'
p1467
aS'R("R_EX_pro_L_e_")'
p1468
aS'R("R_ACOAD7f")'
p1469
aS'R("R_ARGSL_Rev")'
p1470
aS'R("R_PACALDt2rpp")'
p1471
aS'R("R_EX_LalaDgluMdap_e__Rev")'
p1472
aS'R("R_PPALtex")'
p1473
aS'R("R_NOtex_Rev")'
p1474
aS'R("R_CYStex_Rev")'
p1475
aS'R("R_EX_trp_L_e__Rev")'
p1476
aS'R("R_MCOATA")'
p1477
aS'R("R_EX_chol_e_")'
p1478
aS'R("R_PGI_Rev")'
p1479
aS'R("R_EX_galur_e__Rev")'
p1480
aS'R("R_MLTP2")'
p1481
aS'R("R_INDOLEtex")'
p1482
aS'R("R_EX_isetac_e__Rev")'
p1483
aS'R("R_TYMtex_Rev")'
p1484
aS'R("R_ARBtex_Rev")'
p1485
aS'R("R_SKMtex")'
p1486
aS'R("R_EX_h2o_e__Rev")'
p1487
aS'R("R_EX_h2o2_e_")'
p1488
aS'R("R_MANGLYCtex")'
p1489
aS'R("R_PRAGSr_Rev")'
p1490
aS'R("R_GLYCtex_Rev")'
p1491
aS'R("R_3CMPtex")'
p1492
aS'R("R_EX_met_D_e_")'
p1493
aS'R("R_NNATr")'
p1494
aS'R("R_EX_cbl1_e_")'
p1495
aS'R("R_ADSL1r")'
p1496
aS'R("R_M1PD_Rev")'
p1497
aS'R("R_UMPtex_Rev")'
p1498
aS'R("R_TRPtex")'
p1499
aS'R("R_XTSNtex_Rev")'
p1500
aS'R("R_EX_asp_L_e_")'
p1501
aS'R("R_CLPNS160pp_Rev")'
p1502
aS'R("R_SULFACtex")'
p1503
aS'R("R_EX_asn_L_e_")'
p1504
aS'R("R_PROtex")'
p1505
aS'R("R_PUNP2_Rev")'
p1506
aS'R("R_INDOLEt2pp")'
p1507
aS'R("R_UDPG4E_Rev")'
p1508
aS'R("R_PYRtex_Rev")'
p1509
aS'R("R_EX_udpacgal_e_")'
p1510
aS'R("R_EX_feenter_e_")'
p1511
aS'R("R_PHEt2rpp")'
p1512
aS'R("R_EX_dimp_e__Rev")'
p1513
aS'R("R_EX_tsul_e_")'
p1514
aS'R("R_EX_gal_e_")'
p1515
aS'R("R_GLCRt2rpp")'
p1516
aS'R("R_PTRCtex_Rev")'
p1517
aS'R("R_HCINNMtex_Rev")'
p1518
aS'R("R_EX_ttdcea_e__Rev")'
p1519
aS'R("R_NDPK6")'
p1520
aS'R("R_EX_maltpt_e_")'
p1521
aS'R("R_TARTRtex")'
p1522
aS'R("R_RPE")'
p1523
aS'R("R_TREtex")'
p1524
aS'R("R_EX_duri_e_")'
p1525
aS'R("R_UGLT")'
p1526
aS'R("R_EX_gln_L_e_")'
p1527
aS'R("R_EX_glcur1p_e__Rev")'
p1528
aS'R("R_UAGAAT_Rev")'
p1529
aS'R("R_CLPNS161pp")'
p1530
aS'R("R_EX_manglyc_e__Rev")'
p1531
aS'R("R_EX_xmp_e_")'
p1532
aS'R("R_METDtex")'
p1533
aS'R("R_EX_ser_L_e__Rev")'
p1534
aS'R("R_FALDtex_Rev")'
p1535
aS'R("R_LEUt2rpp_Rev")'
p1536
aS'R("R_DCAtex_Rev")'
p1537
aS'R("R_TARTRtex_Rev")'
p1538
aS'R("R_CBLAT")'
p1539
aS'R("R_DURIPP")'
p1540
aS'R("R_ISETACtex_Rev")'
p1541
aS'R("R_3OAR60_Rev")'
p1542
aS'R("R_EX_thm_e__Rev")'
p1543
aS'R("R_EX_g3pi_e_")'
p1544
aS'R("R_3CMPtex_Rev")'
p1545
aS'R("R_CBLAT_Rev")'
p1546
aS'R("R_SUCOAS")'
p1547
aS'R("R_RMNtex_Rev")'
p1548
aS'R("R_EX_cyan_e_")'
p1549
aS'R("R_SKMtex_Rev")'
p1550
aS'R("R_IDONtex")'
p1551
aS'R("R_ILEtex")'
p1552
aS'R("R_PPPNtex")'
p1553
aS'R("R_EX_ni2_e__Rev")'
p1554
aS'R("R_ASPtex")'
p1555
aS'R("R_ALLULPE")'
p1556
aS'R("R_ACSERtex_Rev")'
p1557
aS'R("R_EX_gdp_e__Rev")'
p1558
aS'R("R_CLPNS141pp_Rev")'
p1559
aS'R("R_PACALDtex")'
p1560
aS'R("R_EX_akg_e_")'
p1561
aS'R("R_GUAtex_Rev")'
p1562
aS'R("R_EX_o2_e__Rev")'
p1563
aS'R("R_GLYBtex")'
p1564
aS'R("R_NAtex_Rev")'
p1565
aS'R("R_A5PISO")'
p1566
aS'R("R_CLPNS180pp")'
p1567
aS'R("R_EX_fru_e_")'
p1568
aS'R("R_DGK1")'
p1569
aS'R("R_PRMICI")'
p1570
aS'R("R_EX_glcr_e_")'
p1571
aS'R("R_METSOX2tex_Rev")'
p1572
aS'R("R_NNATr_Rev")'
p1573
aS'R("R_PSERtex_Rev")'
p1574
aS'R("R_ACOAD7f_Rev")'
p1575
aS'R("R_EX_lys_L_e__Rev")'
p1576
aS'R("R_EX_udpglcur_e__Rev")'
p1577
aS'R("R_CRNt8pp")'
p1578
aS'R("R_CLPNS120pp")'
p1579
aS'R("R_EX_agm_e__Rev")'
p1580
aS'R("R_HYXNtpp_Rev")'
p1581
aS'R("R_EX_pyr_e__Rev")'
p1582
aS'R("R_PPALtex_Rev")'
p1583
aS'R("R_NDPK7_Rev")'
p1584
aS'R("R_EX_fe3_e_")'
p1585
aS'R("R_EX_glyc_R_e__Rev")'
p1586
aS'R("R_LSERDHr")'
p1587
aS'R("R_EX_fru_e__Rev")'
p1588
aS'R("R_NH4tex")'
p1589
aS'R("R_CRNCBCT")'
p1590
aS'R("R_EX_pro_L_e__Rev")'
p1591
aS'R("R_EX_ocdca_e_")'
p1592
aS'R("R_EX_nac_e_")'
p1593
aS'R("R_EX_gmp_e_")'
p1594
aS'R("R_GAPD")'
p1595
aS'R("R_FUCtpp_Rev")'
p1596
aS'R("R_TYRt2rpp")'
p1597
aS'R("R_EX_alaala_e__Rev")'
p1598
aS'R("R_MAN6PI")'
p1599
aS'R("R_ACt2rpp")'
p1600
aS'R("R_12PPDRtpp_Rev")'
p1601
aS'R("R_ALAtex_Rev")'
p1602
aS'R("R_EX_hxan_e_")'
p1603
aS'R("R_AOXSr")'
p1604
aS'R("R_UAG2E_Rev")'
p1605
aS'R("R_VALtex_Rev")'
p1606
aS'R("R_THRPtex_Rev")'
p1607
aS'R("R_GLYCtpp")'
p1608
aS'R("R_3OAR180_Rev")'
p1609
aS'R("R_PHEtex")'
p1610
aS'R("R_ACONIs")'
p1611
aS'R("R_CYTK1_Rev")'
p1612
aS'R("R_TMAOtex_Rev")'
p1613
aS'R("R_ATHRDHr_Rev")'
p1614
aS'R("R_EX_fecrm_un_e__Rev")'
p1615
aS'R("R_4HOXPACDtex_Rev")'
p1616
aS'R("R_THYMtex_Rev")'
p1617
aS'R("R_ALAALAr_Rev")'
p1618
aS'R("R_CBIAT")'
p1619
aS'R("R_EX_3hcinnm_e__Rev")'
p1620
aS'R("R_EX_anhgm_e_")'
p1621
aS'R("R_EX_rib_D_e__Rev")'
p1622
aS'R("R_HISt2rpp")'
p1623
aS'R("R_DSERDHr_Rev")'
p1624
aS'R("R_34dhpactex_Rev")'
p1625
aS'R("R_SUCCtex_Rev")'
p1626
aS'R("R_EX_adn_e_")'
p1627
aS'R("R_EX_malthx_e_")'
p1628
aS'R("R_MANtex")'
p1629
aS'R("R_PTRCtex")'
p1630
aS'R("R_ACACt2pp_Rev")'
p1631
aS'R("R_OCTAtex")'
p1632
aS'R("R_H2Stex")'
p1633
aS'R("R_ADEt2rpp_Rev")'
p1634
aS'R("R_EX_glyald_e_")'
p1635
aS'R("R_3OAR100")'
p1636
aS'R("R_23CUMPtex")'
p1637
aS'R("R_3OAR160_Rev")'
p1638
aS'R("R_EX_mal_D_e__Rev")'
p1639
aS'R("R_EX_orn_e__Rev")'
p1640
aS'R("R_ARAI_Rev")'
p1641
aS'R("R_EX_man6p_e__Rev")'
p1642
aS'R("R_EX_12ppd_S_e_")'
p1643
aS'R("R_PROt2rpp_Rev")'
p1644
aS'R("R_FE3tex")'
p1645
aS'R("R_GDPtex")'
p1646
aS'R("R_CRNDt2rpp")'
p1647
aS'R("R_EX_tartr_L_e__Rev")'
p1648
aS'R("R_DSERtex_Rev")'
p1649
aS'R("R_EX_but_e__Rev")'
p1650
aS'R("R_NO3tex_Rev")'
p1651
aS'R("R_NOtpp")'
p1652
aS'R("R_EX_fruur_e_")'
p1653
aS'R("R_PGAMT")'
p1654
aS'R("R_R15BPK")'
p1655
aS'R("R_CRNCDH_Rev")'
p1656
aS'R("R_PPKr")'
p1657
aS'R("R_ACtex")'
p1658
aS'R("R_NDPK5")'
p1659
aS'R("R_EX_csn_e_")'
p1660
aS'R("R_DURIPP_Rev")'
p1661
aS'R("R_SO3tex")'
p1662
aS'R("R_TRSARr")'
p1663
aS'R("R_NH4tex_Rev")'
p1664
aS'R("R_ADSL2r")'
p1665
aS'R("R_ACALDtpp")'
p1666
aS'R("R_IMPtex_Rev")'
p1667
aS'R("R_GALtex")'
p1668
aS'R("R_EX_23cgmp_e__Rev")'
p1669
aS'R("R_MALtex_Rev")'
p1670
aS'R("R_EX_ethso3_e_")'
p1671
aS'R("R_EX_cu2_e__Rev")'
p1672
aS'R("R_PUNP4_Rev")'
p1673
aS'R("R_MG2tex_Rev")'
p1674
aS'R("R_EX_sucr_e__Rev")'
p1675
aS'R("R_EX_alaala_e_")'
p1676
aS'R("R_IPDDI_Rev")'
p1677
aS'R("R_PPM2")'
p1678
aS'R("R_GLUABUTt7pp")'
p1679
aS'R("R_EX_thr_L_e__Rev")'
p1680
aS'R("R_ALCD2x")'
p1681
aS'R("R_EX_23cump_e__Rev")'
p1682
aS'R("R_DHORTS")'
p1683
aS'R("R_HYXNtex_Rev")'
p1684
aS'R("R_EX_but_e_")'
p1685
aS'R("R_AOXSr_Rev")'
p1686
aS'R("R_ACMANAtex")'
p1687
aS'R("R_THYMtex")'
p1688
aS'R("R_GLCtexi")'
p1689
aS'R("R_GLDBRAN2")'
p1690
aS'R("R_GLNtex_Rev")'
p1691
aS'R("R_CYANtex_Rev")'
p1692
aS'R("R_AIRC3_Rev")'
p1693
aS'R("R_TCYNTtex_Rev")'
p1694
aS'R("R_EX_acgal_e_")'
p1695
aS'R("R_3OAR180")'
p1696
aS'R("R_PUNP6")'
p1697
aS'R("R_3GMPtex_Rev")'
p1698
aS'R("R_EX_so3_e_")'
p1699
aS'R("R_G3PD2_Rev")'
p1700
aS'R("R_INDOLEt2rpp_Rev")'
p1701
aS'R("R_ABUTt2pp")'
p1702
aS'R("R_NMNtex")'
p1703
aS'R("R_3UMPtex")'
p1704
aS'R("R_EX_duri_e__Rev")'
p1705
aS'R("R_ENO_Rev")'
p1706
aS'R("R_EX_no_e__Rev")'
p1707
aS'R("R_XMPtex")'
p1708
aS'R("R_EX_malt_e_")'
p1709
aS'R("R_EX_frulys_e_")'
p1710
aS'R("R_URIt2pp")'
p1711
aS'R("R_ARGtex_Rev")'
p1712
aS'R("R_EX_cynt_e__Rev")'
p1713
aS'R("R_EX_imp_e_")'
p1714
aS'R("R_3OAR40_Rev")'
p1715
aS'R("R_EX_csn_e__Rev")'
p1716
aS'R("R_HCINNMt2rpp_Rev")'
p1717
aS'R("R_EX_ptrc_e_")'
p1718
aS'R("R_CBMKr")'
p1719
aS'R("R_GLCURt2rpp_Rev")'
p1720
aS'R("R_EX_3gmp_e__Rev")'
p1721
aS'R("R_DDPGALA_Rev")'
p1722
aS'R("R_PItex_Rev")'
p1723
aS'R("R_EX_co2_e__Rev")'
p1724
aS'R("R_EX_etoh_e_")'
p1725
aS'R("R_ENO")'
p1726
aS'R("R_FRULYStex")'
p1727
aS'R("R_EX_14glucan_e__Rev")'
p1728
aS'R("R_TMDPP_Rev")'
p1729
aS'R("R_PRAGSr")'
p1730
aS'R("R_NI2tex")'
p1731
aS'R("R_4PEPTtex_Rev")'
p1732
aS'R("R_EX_mal_L_e__Rev")'
p1733
aS'R("R_UDPGALtex_Rev")'
p1734
aS'R("R_FUCtex")'
p1735
aS'R("R_EX_so3_e__Rev")'
p1736
aS'R("R_EX_23dappa_e_")'
p1737
aS'R("R_EX_mso3_e_")'
p1738
aS'R("R_ALLtex_Rev")'
p1739
aS'R("R_EX_gthox_e_")'
p1740
atp1741
Rp1742
.