c__builtin__
set
p0
((lp1
S'R("R_12PPDStex_Rev")'
p2
aS'R("R_EX_orot_e__Rev")'
p3
aS'R("R_MMETtex")'
p4
aS'R("R_5DGLCNR")'
p5
aS'R("R_L_LACt2rpp")'
p6
aS'R("R_EX_arbtn_fe3_e__Rev")'
p7
aS'R("R_EX_h2_e_")'
p8
aS'R("R_EX_pnto_R_e_")'
p9
aS'R("R_MLTP3_Rev")'
p10
aS'R("R_EX_no2_e_")'
p11
aS'R("R_12PPDStex")'
p12
aS'R("R_PPPGO")'
p13
aS'R("R_NDPK8")'
p14
aS'R("R_ASPt2_3pp")'
p15
aS'R("R_MAN6PI_Rev")'
p16
aS'R("R_GLYCL")'
p17
aS'R("R_ALAt4pp")'
p18
aS'R("R_ACACtex_Rev")'
p19
aS'R("R_LPLIPAL2A141")'
p20
aS'R("R_AGPR")'
p21
aS'R("R_Ec_biomass_iAF1260_core_59p81M")'
p22
aS'R("R_HEPK1")'
p23
aS'R("R_EX_g3pg_e__Rev")'
p24
aS'R("R_PYRt2rpp_Rev")'
p25
aS'R("R_GLTPD_Rev")'
p26
aS'R("R_FACOAE160")'
p27
aS'R("R_DBTS")'
p28
aS'R("R_NTPP7")'
p29
aS'R("R_EX_hxa_e__Rev")'
p30
aS'R("R_PSCLYStex_Rev")'
p31
aS'R("R_DNTPPA")'
p32
aS'R("R_PSSA161")'
p33
aS'R("R_OMPDC")'
p34
aS'R("R_MAN6Ptex_Rev")'
p35
aS'R("R_PPND")'
p36
aS'R("R_INStex")'
p37
aS'R("R_HISTRS")'
p38
aS'R("R_EX_glyc2p_e__Rev")'
p39
aS'R("R_EX_thymd_e__Rev")'
p40
aS'R("R_TMDS")'
p41
aS'R("R_EX_gam_e__Rev")'
p42
aS'R("R_ECOAH7_Rev")'
p43
aS'R("R_ALAabcpp")'
p44
aS'R("R_FUMtex_Rev")'
p45
aS'R("R_EX_14glucan_e_")'
p46
aS'R("R_CTPS2")'
p47
aS'R("R_LPLIPAL1A180pp")'
p48
aS'R("R_MME")'
p49
aS'R("R_RNTR4c")'
p50
aS'R("R_SERTRS")'
p51
aS'R("R_EX_glu_L_e_")'
p52
aS'R("R_PDX5PS")'
p53
aS'R("R_CA2tex_Rev")'
p54
aS'R("R_EX_so2_e_")'
p55
aS'R("R_MINOHPtexi")'
p56
aS'R("R_TDSR1")'
p57
aS'R("R_EX_tyrp_e__Rev")'
p58
aS'R("R_TYMtex")'
p59
aS'R("R_ATHRDHr")'
p60
aS'R("R_FECRMabcpp")'
p61
aS'R("R_ASNt2rpp")'
p62
aS'R("R_NTD11pp")'
p63
aS'R("R_EDA")'
p64
aS'R("R_GLUABUTt7pp_Rev")'
p65
aS'R("R_IPPMIb")'
p66
aS'R("R_EX_udpg_e_")'
p67
aS'R("R_CYTDt2rpp")'
p68
aS'R("R_EX_urea_e__Rev")'
p69
aS'R("R_IGPS")'
p70
aS'R("R_ADSS")'
p71
aS'R("R_EDD")'
p72
aS'R("R_GLCRtex")'
p73
aS'R("R_FRUURt2rpp_Rev")'
p74
aS'R("R_EX_thym_e__Rev")'
p75
aS'R("R_LPLIPAL1A161pp")'
p76
aS'R("R_EX_dcyt_e_")'
p77
aS'R("R_ACONTa")'
p78
aS'R("R_ASCBPL")'
p79
aS'R("R_UACMAMO")'
p80
aS'R("R_THZPSN")'
p81
aS'R("R_NTD10")'
p82
aS'R("R_CYSabcpp")'
p83
aS'R("R_PSSA181")'
p84
aS'R("R_EX_LalaDgluMdap_e_")'
p85
aS'R("R_PPK2r_Rev")'
p86
aS'R("R_EX_rmn_e_")'
p87
aS'R("R_EX_pnto_R_e__Rev")'
p88
aS'R("R_ACMANAtex_Rev")'
p89
aS'R("R_FACOAL181t2pp")'
p90
aS'R("R_D_LACtex_Rev")'
p91
aS'R("R_EX_udpg_e__Rev")'
p92
aS'R("R_EAR121x")'
p93
aS'R("R_OMMBLHX3")'
p94
aS'R("R_DINStex")'
p95
aS'R("R_OCBT_Rev")'
p96
aS'R("R_3OAR40")'
p97
aS'R("R_2AGPEAT161")'
p98
aS'R("R_ARAI")'
p99
aS'R("R_EX_mn2_e__Rev")'
p100
aS'R("R_EX_etoh_e__Rev")'
p101
aS'R("R_CS")'
p102
aS'R("R_KDOPP")'
p103
aS'R("R_GARFT_Rev")'
p104
aS'R("R_IPMD")'
p105
aS'R("R_FRULYStex_Rev")'
p106
aS'R("R_GTHRDtex_Rev")'
p107
aS'R("R_EX_metsox_R_L_e_")'
p108
aS'R("R_3NTD4pp")'
p109
aS'R("R_ORNDC")'
p110
aS'R("R_CRNCAL2")'
p111
aS'R("R_PLIPA1A160pp")'
p112
aS'R("R_PSD180")'
p113
aS'R("R_UM4PL")'
p114
aS'R("R_GLYCAt2rpp_Rev")'
p115
aS'R("R_GLBRAN2")'
p116
aS'R("R_HXAND")'
p117
aS'R("R_PAPA181pp")'
p118
aS'R("R_PTA2")'
p119
aS'R("R_ACACT1r_Rev")'
p120
aS'R("R_FACOAL160t2pp")'
p121
aS'R("R_EX_succ_e__Rev")'
p122
aS'R("R_DALAtex_Rev")'
p123
aS'R("R_ORNabcpp")'
p124
aS'R("R_SADH")'
p125
aS'R("R_ILETRS")'
p126
aS'R("R_ALLK")'
p127
aS'R("R_GALCTNtex_Rev")'
p128
aS'R("R_EX_gal_e__Rev")'
p129
aS'R("R_THYMt3pp")'
p130
aS'R("R_PDE1")'
p131
aS'R("R_EX_nh4_e__Rev")'
p132
aS'R("R_O16AUNDtpp")'
p133
aS'R("R_AGMH")'
p134
aS'R("R_MDDCP2pp")'
p135
aS'R("R_EX_uacgam_e__Rev")'
p136
aS'R("R_ACACT1r")'
p137
aS'R("R_EX_for_e__Rev")'
p138
aS'R("R_EX_fe3dhbzs_e_")'
p139
aS'R("R_3PEPTtex_Rev")'
p140
aS'R("R_URIH")'
p141
aS'R("R_PHEt2rpp_Rev")'
p142
aS'R("R_4PCPpp")'
p143
aS'R("R_TRPt2rpp_Rev")'
p144
aS'R("R_GRXR")'
p145
aS'R("R_O16A4Lpp")'
p146
aS'R("R_HYD1pp")'
p147
aS'R("R_PUNP1")'
p148
aS'R("R_EX_fruur_e__Rev")'
p149
aS'R("R_EX_arg_L_e_")'
p150
aS'R("R_MG2uabcpp")'
p151
aS'R("R_CRNt2rpp_Rev")'
p152
aS'R("R_PGL")'
p153
aS'R("R_RZ5PP")'
p154
aS'R("R_PRASCSi")'
p155
aS'R("R_EX_maltttr_e_")'
p156
aS'R("R_GBBTNtex_Rev")'
p157
aS'R("R_CHRPL")'
p158
aS'R("R_EX_alltn_e_")'
p159
aS'R("R_LACZpp")'
p160
aS'R("R_DSBGGT")'
p161
aS'R("R_XTSNt2rpp")'
p162
aS'R("R_ACONTb")'
p163
aS'R("R_ATPM")'
p164
aS'R("R_AKGtex_Rev")'
p165
aS'R("R_ICDHyr_Rev")'
p166
aS'R("R_BUTSO3tex_Rev")'
p167
aS'R("R_EX_agm_e_")'
p168
aS'R("R_UDPGALPpp")'
p169
aS'R("R_CD2tex")'
p170
aS'R("R_PGPP160pp")'
p171
aS'R("R_ALLULPE_Rev")'
p172
aS'R("R_FORt2pp")'
p173
aS'R("R_IDOND2")'
p174
aS'R("R_COBALT2tpp")'
p175
aS'R("R_FMNRx2")'
p176
aS'R("R_EX_cit_e__Rev")'
p177
aS'R("R_EX_ni2_e_")'
p178
aS'R("R_GALTptspp")'
p179
aS'R("R_EX_taur_e__Rev")'
p180
aS'R("R_12DGR140tipp")'
p181
aS'R("R_MECDPDH2")'
p182
aS'R("R_EX_cpgn_e_")'
p183
aS'R("R_EX_tcynt_e_")'
p184
aS'R("R_TYRtex")'
p185
aS'R("R_GLYCtex")'
p186
aS'R("R_EX_dgsn_e__Rev")'
p187
aS'R("R_HACD2i")'
p188
aS'R("R_GUAD")'
p189
aS'R("R_DAPabcpp")'
p190
aS'R("R_INSK")'
p191
aS'R("R_ACOAD3f_Rev")'
p192
aS'R("R_G5SD")'
p193
aS'R("R_GAL1PPpp")'
p194
aS'R("R_AACTOOR")'
p195
aS'R("R_MCITL2")'
p196
aS'R("R_TUNGStex")'
p197
aS'R("R_XANtex")'
p198
aS'R("R_EX_2ddglcn_e_")'
p199
aS'R("R_URIDK2r_Rev")'
p200
aS'R("R_5DGLCNtex")'
p201
aS'R("R_GLCUR1Ptex_Rev")'
p202
aS'R("R_SO2tex_Rev")'
p203
aS'R("R_PROt4pp")'
p204
aS'R("R_EX_octa_e__Rev")'
p205
aS'R("R_TMPK")'
p206
aS'R("R_KARA2")'
p207
aS'R("R_INSt2pp")'
p208
aS'R("R_CSNt2pp")'
p209
aS'R("R_FORtppi")'
p210
aS'R("R_EX_arbtn_e__Rev")'
p211
aS'R("R_EX_f6p_e_")'
p212
aS'R("R_PPCSCT")'
p213
aS'R("R_GAMAN6Ptex_Rev")'
p214
aS'R("R_CBIAT_Rev")'
p215
aS'R("R_UM4PCP")'
p216
aS'R("R_H2SO")'
p217
aS'R("R_GLCS1")'
p218
aS'R("R_PLIPA2A140pp")'
p219
aS'R("R_EX_taur_e_")'
p220
aS'R("R_PUNP5_Rev")'
p221
aS'R("R_G3PAT180")'
p222
aS'R("R_EX_k_e__Rev")'
p223
aS'R("R_GGGABADr_Rev")'
p224
aS'R("R_ADEtex_Rev")'
p225
aS'R("R_3HAD100")'
p226
aS'R("R_IDONt2rpp")'
p227
aS'R("R_ARGAGMt7pp")'
p228
aS'R("R_EX_hxa_e_")'
p229
aS'R("R_EAR100y")'
p230
aS'R("R_3OAS161")'
p231
aS'R("R_PA160abcpp")'
p232
aS'R("R_SERD_L")'
p233
aS'R("R_ORNtex")'
p234
aS'R("R_PPM")'
p235
aS'R("R_HCO3E_Rev")'
p236
aS'R("R_UPLA4FNT")'
p237
aS'R("R_EX_h2_e__Rev")'
p238
aS'R("R_EX_mso3_e__Rev")'
p239
aS'R("R_DINStex_Rev")'
p240
aS'R("R_TYRPpp")'
p241
aS'R("R_HACD5i")'
p242
aS'R("R_ETOHt2rpp_Rev")'
p243
aS'R("R_GALT1")'
p244
aS'R("R_EX_mmet_e__Rev")'
p245
aS'R("R_PPA2")'
p246
aS'R("R_PLIPA1G180pp")'
p247
aS'R("R_AGM3Pt2pp")'
p248
aS'R("R_OROTt2_2pp")'
p249
aS'R("R_EAR80y")'
p250
aS'R("R_METTRS")'
p251
aS'R("R_ULA4NFT")'
p252
aS'R("R_NDPK7")'
p253
aS'R("R_GLYCK")'
p254
aS'R("R_KAT7")'
p255
aS'R("R_ALAGLUE_Rev")'
p256
aS'R("R_EX_ile_L_e_")'
p257
aS'R("R_ECOAH8")'
p258
aS'R("R_TDP")'
p259
aS'R("R_EX_met_L_e__Rev")'
p260
aS'R("R_ACODA")'
p261
aS'R("R_GLYCLTt4pp")'
p262
aS'R("R_ACALD")'
p263
aS'R("R_G3PEtex_Rev")'
p264
aS'R("R_NTPP4")'
p265
aS'R("R_DURIt2pp")'
p266
aS'R("R_PSD160")'
p267
aS'R("R_FRUURt2rpp")'
p268
aS'R("R_METS")'
p269
aS'R("R_GALTtex")'
p270
aS'R("R_EX_ac_e__Rev")'
p271
aS'R("R_XYLUtex_Rev")'
p272
aS'R("R_EX_na1_e__Rev")'
p273
aS'R("R_SPMDtex")'
p274
aS'R("R_EX_fecrm_e_")'
p275
aS'R("R_EX_f6p_e__Rev")'
p276
aS'R("R_UREAtex")'
p277
aS'R("R_23DAPPAtex_Rev")'
p278
aS'R("R_THMDt2rpp_Rev")'
p279
aS'R("R_SUCFUMtpp")'
p280
aS'R("R_ALDD19x")'
p281
aS'R("R_MAN6Ptex")'
p282
aS'R("R_EX_lac_L_e__Rev")'
p283
aS'R("R_PHEMEabcpp")'
p284
aS'R("R_LPLIPAL1E141pp")'
p285
aS'R("R_ADNK1")'
p286
aS'R("R_LPLIPAL2E181")'
p287
aS'R("R_PROD2")'
p288
aS'R("R_DGK1_Rev")'
p289
aS'R("R_ACOTA_Rev")'
p290
aS'R("R_CAt6pp_Rev")'
p291
aS'R("R_PGP161abcpp")'
p292
aS'R("R_FE3Ri")'
p293
aS'R("R_GLUNpp")'
p294
aS'R("R_HYD2pp")'
p295
aS'R("R_THRt4pp")'
p296
aS'R("R_EX_acnam_e__Rev")'
p297
aS'R("R_HDCAtexi")'
p298
aS'R("R_IPPMIa")'
p299
aS'R("R_AGMt2pp")'
p300
aS'R("R_EX_hdcea_e_")'
p301
aS'R("R_GLYC3Pabcpp")'
p302
aS'R("R_METtex_Rev")'
p303
aS'R("R_FCLT")'
p304
aS'R("R_TMAtex")'
p305
aS'R("R_EX_din_e_")'
p306
aS'R("R_NNDMBRT")'
p307
aS'R("R_FA161ACPHi")'
p308
aS'R("R_H2St1pp")'
p309
aS'R("R_PTRCabcpp")'
p310
aS'R("R_INSt2rpp_Rev")'
p311
aS'R("R_ETHAtex_Rev")'
p312
aS'R("R_ACBIPGT")'
p313
aS'R("R_GLYALDtex")'
p314
aS'R("R_PYDAMK")'
p315
aS'R("R_BALAtex_Rev")'
p316
aS'R("R_DALAt2pp")'
p317
aS'R("R_EX_hom_L_e_")'
p318
aS'R("R_EX_xmp_e__Rev")'
p319
aS'R("R_EX_glyc_R_e_")'
p320
aS'R("R_NTD12")'
p321
aS'R("R_PTAr")'
p322
aS'R("R_EX_dump_e_")'
p323
aS'R("R_MDDCP3pp")'
p324
aS'R("R_PSD140")'
p325
aS'R("R_EX_inost_e__Rev")'
p326
aS'R("R_SSALx")'
p327
aS'R("R_GLUt2rpp_Rev")'
p328
aS'R("R_GLCNt2rpp")'
p329
aS'R("R_EX_indole_e__Rev")'
p330
aS'R("R_PPAKr_Rev")'
p331
aS'R("R_NMNPtpp")'
p332
aS'R("R_EX_acgam_e_")'
p333
aS'R("R_NTD7")'
p334
aS'R("R_CMPN")'
p335
aS'R("R_EX_lyx_L_e_")'
p336
aS'R("R_EX_lipa_e_")'
p337
aS'R("R_MDH")'
p338
aS'R("R_EX_ddca_e__Rev")'
p339
aS'R("R_EX_3ump_e__Rev")'
p340
aS'R("R_DAPE_Rev")'
p341
aS'R("R_ASPTRS")'
p342
aS'R("R_3OAR80")'
p343
aS'R("R_FRUptspp")'
p344
aS'R("R_GLYC3Ptex")'
p345
aS'R("R_H2tex")'
p346
aS'R("R_TARTRt7pp")'
p347
aS'R("R_AGPAT161")'
p348
aS'R("R_NNAM")'
p349
aS'R("R_IDONtex_Rev")'
p350
aS'R("R_DHNPA2")'
p351
aS'R("R_AICART_Rev")'
p352
aS'R("R_EX_r5p_e__Rev")'
p353
aS'R("R_HYPOE")'
p354
aS'R("R_EX_acald_e__Rev")'
p355
aS'R("R_RNDR3")'
p356
aS'R("R_ANHGMtex")'
p357
aS'R("R_EX_cpgn_un_e_")'
p358
aS'R("R_LPLIPAL2A160")'
p359
aS'R("R_E4PD")'
p360
aS'R("R_EX_fe3dhbzs_e__Rev")'
p361
aS'R("R_EX_no3_e_")'
p362
aS'R("R_CYNTtex")'
p363
aS'R("R_EX_lipa_cold_e_")'
p364
aS'R("R_Kt2pp")'
p365
aS'R("R_SO4tex_Rev")'
p366
aS'R("R_SULFACabcpp")'
p367
aS'R("R_AGt3")'
p368
aS'R("R_ISETACtex")'
p369
aS'R("R_THRabcpp")'
p370
aS'R("R_PAPA160")'
p371
aS'R("R_NO2tex")'
p372
aS'R("R_EX_glyclt_e__Rev")'
p373
aS'R("R_PLIPA2A160pp")'
p374
aS'R("R_TGBPA_Rev")'
p375
aS'R("R_SERAT")'
p376
aS'R("R_ADPRDP")'
p377
aS'R("R_LDH_D_Rev")'
p378
aS'R("R_LYSt3pp")'
p379
aS'R("R_2AGPA161tipp")'
p380
aS'R("R_CSNtex_Rev")'
p381
aS'R("R_MTHFD")'
p382
aS'R("R_EX_ade_e__Rev")'
p383
aS'R("R_MG2t3_2pp")'
p384
aS'R("R_METAT")'
p385
aS'R("R_DHFR_Rev")'
p386
aS'R("R_GALURt2rpp_Rev")'
p387
aS'R("R_THRA2i")'
p388
aS'R("R_CBL1abcpp")'
p389
aS'R("R_RPI_Rev")'
p390
aS'R("R_3HAD161")'
p391
aS'R("R_LDH_D")'
p392
aS'R("R_CRNBTCT")'
p393
aS'R("R_P5CR")'
p394
aS'R("R_5DGLCNR_Rev")'
p395
aS'R("R_ECOAH1_Rev")'
p396
aS'R("R_KAS15")'
p397
aS'R("R_GLCNt2rpp_Rev")'
p398
aS'R("R_CAT")'
p399
aS'R("R_12DGR141tipp")'
p400
aS'R("R_DAGK180")'
p401
aS'R("R_CRNCDH")'
p402
aS'R("R_FRULYSDG_Rev")'
p403
aS'R("R_GPDDA5")'
p404
aS'R("R_EX_arab_L_e__Rev")'
p405
aS'R("R_FBA_Rev")'
p406
aS'R("R_BUTt2rpp")'
p407
aS'R("R_EX_23cgmp_e_")'
p408
aS'R("R_INSH")'
p409
aS'R("R_IMPtex")'
p410
aS'R("R_NODOx")'
p411
aS'R("R_H2O2tex")'
p412
aS'R("R_M1PD")'
p413
aS'R("R_CLPNS141pp")'
p414
aS'R("R_DCYTD")'
p415
aS'R("R_EX_na1_e_")'
p416
aS'R("R_DMSOtex")'
p417
aS'R("R_NADPPPS")'
p418
aS'R("R_DAGK141")'
p419
aS'R("R_PYNP2r")'
p420
aS'R("R_DMQMT")'
p421
aS'R("R_EX_cys_L_e_")'
p422
aS'R("R_EX_din_e__Rev")'
p423
aS'R("R_THMDt2rpp")'
p424
aS'R("R_URAt2rpp")'
p425
aS'R("R_GLCP2")'
p426
aS'R("R_HOPNTAL")'
p427
aS'R("R_CFAS180E")'
p428
aS'R("R_SGSAD")'
p429
aS'R("R_EX_g3pe_e_")'
p430
aS'R("R_PLIPA2E120pp")'
p431
aS'R("R_PUNP6_Rev")'
p432
aS'R("R_NTPP9")'
p433
aS'R("R_FE3DHBZR")'
p434
aS'R("R_PPPNDO")'
p435
aS'R("R_CHLt2pp")'
p436
aS'R("R_ECOAH3")'
p437
aS'R("R_EX_acgam1p_e__Rev")'
p438
aS'R("R_SUCRtex")'
p439
aS'R("R_2DGULRy")'
p440
aS'R("R_CAt6pp")'
p441
aS'R("R_3OAS121")'
p442
aS'R("R_GUI2_Rev")'
p443
aS'R("R_INDOLEt2rpp")'
p444
aS'R("R_HCYSMT2")'
p445
aS'R("R_GLYCLTt2rpp_Rev")'
p446
aS'R("R_DADNtex")'
p447
aS'R("R_O16A4COLIPAtex")'
p448
aS'R("R_PE181abcpp")'
p449
aS'R("R_LPLIPAL2G180")'
p450
aS'R("R_ALLTAMH")'
p451
aS'R("R_EX_ttdca_e_")'
p452
aS'R("R_EX_cbi_e_")'
p453
aS'R("R_HISTP")'
p454
aS'R("R_KAT4")'
p455
aS'R("R_CYSSADS")'
p456
aS'R("R_DURItex")'
p457
aS'R("R_MALDtex_Rev")'
p458
aS'R("R_DASYN180")'
p459
aS'R("R_EX_cobalt2_e_")'
p460
aS'R("R_FDH5pp")'
p461
aS'R("R_PPCK")'
p462
aS'R("R_DHAPT")'
p463
aS'R("R_BALAtex")'
p464
aS'R("R_3HAD180")'
p465
aS'R("R_TARTRt7pp_Rev")'
p466
aS'R("R_ECOAH5_Rev")'
p467
aS'R("R_PA161abcpp")'
p468
aS'R("R_EX_malt_e__Rev")'
p469
aS'R("R_EX_o2s_e__Rev")'
p470
aS'R("R_PHETA1_Rev")'
p471
aS'R("R_DGSNtex")'
p472
aS'R("R_TAGURr")'
p473
aS'R("R_EX_xtsn_e_")'
p474
aS'R("R_OPHBDC")'
p475
aS'R("R_NI2abcpp")'
p476
aS'R("R_FALDH2_Rev")'
p477
aS'R("R_GALKr_Rev")'
p478
aS'R("R_EX_ppa_e_")'
p479
aS'R("R_ASR")'
p480
aS'R("R_MLTGY3pp")'
p481
aS'R("R_ACOAD1f_Rev")'
p482
aS'R("R_GOFUCR")'
p483
aS'R("R_LPLIPAL1E140pp")'
p484
aS'R("R_FALDtex")'
p485
aS'R("R_26DAHtex_Rev")'
p486
aS'R("R_4HTHRS")'
p487
aS'R("R_PGPP181")'
p488
aS'R("R_ASPO5")'
p489
aS'R("R_MNLtex")'
p490
aS'R("R_PGPP180pp")'
p491
aS'R("R_NACtpp")'
p492
aS'R("R_G6PDH2r_Rev")'
p493
aS'R("R_SUCBZL")'
p494
aS'R("R_AHCYSNS")'
p495
aS'R("R_EX_dopa_e_")'
p496
aS'R("R_EX_pser_L_e_")'
p497
aS'R("R_PGPP161")'
p498
aS'R("R_EX_galctn_L_e__Rev")'
p499
aS'R("R_ALTRH")'
p500
aS'R("R_2AGPGAT181")'
p501
aS'R("R_PDX5PO2")'
p502
aS'R("R_ASO3t8pp")'
p503
aS'R("R_IPDDI")'
p504
aS'R("R_FE2abcpp")'
p505
aS'R("R_ACOATA")'
p506
aS'R("R_TCYNTtex")'
p507
aS'R("R_TDPAGTA")'
p508
aS'R("R_DHBD_Rev")'
p509
aS'R("R_EX_fe3hox_e_")'
p510
aS'R("R_EX_g6p_e_")'
p511
aS'R("R_ACGAL1Ptex_Rev")'
p512
aS'R("R_LPLIPAL2E140")'
p513
aS'R("R_GLUR_Rev")'
p514
aS'R("R_URIC")'
p515
aS'R("R_EX_dmso_e__Rev")'
p516
aS'R("R_EX_g3ps_e__Rev")'
p517
aS'R("R_FACOAE60")'
p518
aS'R("R_ASPK")'
p519
aS'R("R_EX_ag_e_")'
p520
aS'R("R_GTHRDtex")'
p521
aS'R("R_FBP")'
p522
aS'R("R_ASPT")'
p523
aS'R("R_PSD120")'
p524
aS'R("R_HISTD")'
p525
aS'R("R_CLPNS140pp_Rev")'
p526
aS'R("R_UPLA4FNF")'
p527
aS'R("R_ETHSO3tex")'
p528
aS'R("R_3OAR120_Rev")'
p529
aS'R("R_EX_acgal1p_e_")'
p530
aS'R("R_EX_acolipa_e__Rev")'
p531
aS'R("R_GALBDtex")'
p532
aS'R("R_O16AP3pp")'
p533
aS'R("R_EX_malttr_e__Rev")'
p534
aS'R("R_FACOAL120t2pp")'
p535
aS'R("R_EX_hdcea_e__Rev")'
p536
aS'R("R_PROGLYtex_Rev")'
p537
aS'R("R_PPC")'
p538
aS'R("R_ACOAD2f_Rev")'
p539
aS'R("R_DHAD2")'
p540
aS'R("R_MALTPTtexi")'
p541
aS'R("R_PLIPA2G141pp")'
p542
aS'R("R_NDPK2")'
p543
aS'R("R_42A12BOOXpp")'
p544
aS'R("R_DDGLCNtex")'
p545
aS'R("R_F6PP")'
p546
aS'R("R_G1Ptex_Rev")'
p547
aS'R("R_EDTXS2")'
p548
aS'R("R_NTD2pp")'
p549
aS'R("R_NAt3pp")'
p550
aS'R("R_ACGAtex")'
p551
aS'R("R_PLIPA1A180pp")'
p552
aS'R("R_OBTFL")'
p553
aS'R("R_TYRTA")'
p554
aS'R("R_EX_galctn_L_e_")'
p555
aS'R("R_NTRIR3pp")'
p556
aS'R("R_D_LACtex")'
p557
aS'R("R_DM_HMFURN")'
p558
aS'R("R_METSOX2abcpp")'
p559
aS'R("R_PAPA120")'
p560
aS'R("R_ECOAH2_Rev")'
p561
aS'R("R_EX_crn_e__Rev")'
p562
aS'R("R_GSNtex_Rev")'
p563
aS'R("R_ADA")'
p564
aS'R("R_NAMNPP")'
p565
aS'R("R_2AGPGAT160")'
p566
aS'R("R_2DGLCNRx")'
p567
aS'R("R_FEENTERtonex")'
p568
aS'R("R_ABUTD")'
p569
aS'R("R_PACALDt2rpp_Rev")'
p570
aS'R("R_EX_met_D_e__Rev")'
p571
aS'R("R_ACACtex")'
p572
aS'R("R_ALAALAabcpp")'
p573
aS'R("R_EX_2ddglcn_e__Rev")'
p574
aS'R("R_HPYRI")'
p575
aS'R("R_ADNtex_Rev")'
p576
aS'R("R_GTHOXtex_Rev")'
p577
aS'R("R_G6Pt6_2pp")'
p578
aS'R("R_ARBtex")'
p579
aS'R("R_3HAD121")'
p580
aS'R("R_PLIPA1A161pp")'
p581
aS'R("R_MTAN")'
p582
aS'R("R_LPLIPAL1E160pp")'
p583
aS'R("R_EX_cys_D_e__Rev")'
p584
aS'R("R_EX_galur_e_")'
p585
aS'R("R_CPGNR3")'
p586
aS'R("R_BPNT")'
p587
aS'R("R_LYXt2pp")'
p588
aS'R("R_LPLIPAL2G141")'
p589
aS'R("R_DSERDHr")'
p590
aS'R("R_L_LACD3")'
p591
aS'R("R_EX_cobalt2_e__Rev")'
p592
aS'R("R_GLYBtex_Rev")'
p593
aS'R("R_G3PEtex")'
p594
aS'R("R_EX_enlipa_e_")'
p595
aS'R("R_34dhpactex")'
p596
aS'R("R_2AGPE160tipp")'
p597
aS'R("R_FE2tex_Rev")'
p598
aS'R("R_KAT1")'
p599
aS'R("R_CBPS")'
p600
aS'R("R_MTHFC")'
p601
aS'R("R_LCADi")'
p602
aS'R("R_EX_colipa_e_")'
p603
aS'R("R_EX_nac_e__Rev")'
p604
aS'R("R_PUNP7_Rev")'
p605
aS'R("R_LYSDC")'
p606
aS'R("R_GUAtpp_Rev")'
p607
aS'R("R_CDAPPA141")'
p608
aS'R("R_EX_ptrc_e__Rev")'
p609
aS'R("R_MCOATA_Rev")'
p610
aS'R("R_EX_uri_e__Rev")'
p611
aS'R("R_MANptspp")'
p612
aS'R("R_DMSOR1pp")'
p613
aS'R("R_MDH2")'
p614
aS'R("R_AB6PGH")'
p615
aS'R("R_CYNTAH")'
p616
aS'R("R_MECDPS")'
p617
aS'R("R_EX_tym_e__Rev")'
p618
aS'R("R_RHAT1")'
p619
aS'R("R_GLYCTO4")'
p620
aS'R("R_ADK3")'
p621
aS'R("R_RNDR4b")'
p622
aS'R("R_IMPC")'
p623
aS'R("R_HACD6i")'
p624
aS'R("R_GLNabcpp")'
p625
aS'R("R_G3PAT120")'
p626
aS'R("R_MOHMT")'
p627
aS'R("R_EX_34dhpac_e_")'
p628
aS'R("R_TMAOR1")'
p629
aS'R("R_PTHRpp")'
p630
aS'R("R_PPTHpp")'
p631
aS'R("R_EX_hacolipa_e__Rev")'
p632
aS'R("R_DKGLCNR2y")'
p633
aS'R("R_BETALDHy")'
p634
aS'R("R_OROTtex_Rev")'
p635
aS'R("R_GLYC3Pt6pp")'
p636
aS'R("R_ADPT")'
p637
aS'R("R_DHPTPE")'
p638
aS'R("R_HSDy_Rev")'
p639
aS'R("R_GLUtex_Rev")'
p640
aS'R("R_HACD1i")'
p641
aS'R("R_N2Otex")'
p642
aS'R("R_CHORS")'
p643
aS'R("R_EX_sucr_e_")'
p644
aS'R("R_COLIPAabcpp")'
p645
aS'R("R_NADTRHD")'
p646
aS'R("R_EX_psclys_e_")'
p647
aS'R("R_FACOAE161")'
p648
aS'R("R_ACtex_Rev")'
p649
aS'R("R_O16GLCT1")'
p650
aS'R("R_EX_galct_D_e__Rev")'
p651
aS'R("R_ADEt2rpp")'
p652
aS'R("R_MAN1PT2")'
p653
aS'R("R_GLCRtex_Rev")'
p654
aS'R("R_DADA")'
p655
aS'R("R_EX_no2_e__Rev")'
p656
aS'R("R_ASO3tex_Rev")'
p657
aS'R("R_NTPP6")'
p658
aS'R("R_EX_maltttr_e__Rev")'
p659
aS'R("R_FEOXAMR3")'
p660
aS'R("R_MALDtex")'
p661
aS'R("R_CBL1tonex")'
p662
aS'R("R_LACZ")'
p663
aS'R("R_RIBabcpp")'
p664
aS'R("R_EX_val_L_e__Rev")'
p665
aS'R("R_PGSA181")'
p666
aS'R("R_AGPAT180")'
p667
aS'R("R_GCALDD")'
p668
aS'R("R_GLCDpp")'
p669
aS'R("R_GALtex_Rev")'
p670
aS'R("R_AMMQLT8")'
p671
aS'R("R_NTD10pp")'
p672
aS'R("R_AMPN")'
p673
aS'R("R_UMPK")'
p674
aS'R("R_FRULYSDG")'
p675
aS'R("R_HIStex")'
p676
aS'R("R_CITt7pp")'
p677
aS'R("R_OMPHHX")'
p678
aS'R("R_FMETTRS")'
p679
aS'R("R_EX_acmum_e__Rev")'
p680
aS'R("R_DMStex")'
p681
aS'R("R_CO2tpp_Rev")'
p682
aS'R("R_EX_metsox_R_L_e__Rev")'
p683
aS'R("R_U23GAAT")'
p684
aS'R("R_MALTabcpp")'
p685
aS'R("R_DMSOR2pp")'
p686
aS'R("R_DMStex_Rev")'
p687
aS'R("R_MALDDH")'
p688
aS'R("R_FEOXAMUtex")'
p689
aS'R("R_EX_dopa_e__Rev")'
p690
aS'R("R_23DAPPAtex")'
p691
aS'R("R_MCITS")'
p692
aS'R("R_CYTDtex_Rev")'
p693
aS'R("R_DSBAO2")'
p694
aS'R("R_G3PGtex")'
p695
aS'R("R_AM4PA")'
p696
aS'R("R_LEUTRS")'
p697
aS'R("R_CYTD")'
p698
aS'R("R_EX_3hpppn_e__Rev")'
p699
aS'R("R_PGP160abcpp")'
p700
aS'R("R_PGP180abcpp")'
p701
aS'R("R_LCTStex")'
p702
aS'R("R_ACOAD8f")'
p703
aS'R("R_EX_fecrm_un_e_")'
p704
aS'R("R_MDDEP1pp")'
p705
aS'R("R_EX_sulfac_e__Rev")'
p706
aS'R("R_NDPK2_Rev")'
p707
aS'R("R_G3PD7")'
p708
aS'R("R_PHETRS")'
p709
aS'R("R_ACONIs_Rev")'
p710
aS'R("R_DCMPtex_Rev")'
p711
aS'R("R_XYLI2_Rev")'
p712
aS'R("R_DADNtex_Rev")'
p713
aS'R("R_12DGR180tipp")'
p714
aS'R("R_DSERtex")'
p715
aS'R("R_PSSA180")'
p716
aS'R("R_GLCRt2rpp_Rev")'
p717
aS'R("R_2AGPGAT140")'
p718
aS'R("R_SHKK")'
p719
aS'R("R_EX_fe3hox_e__Rev")'
p720
aS'R("R_GLYCAtex")'
p721
aS'R("R_EX_ca2_e__Rev")'
p722
aS'R("R_EX_h2o_e_")'
p723
aS'R("R_GALCTND")'
p724
aS'R("R_FEENTERR3")'
p725
aS'R("R_NDPK1_Rev")'
p726
aS'R("R_PPALtpp_Rev")'
p727
aS'R("R_G3PSabcpp")'
p728
aS'R("R_EX_malthx_e__Rev")'
p729
aS'R("R_TDSR2")'
p730
aS'R("R_EX_lac_D_e_")'
p731
aS'R("R_PAPA180pp")'
p732
aS'R("R_EX_skm_e__Rev")'
p733
aS'R("R_FECRMtonex")'
p734
aS'R("R_MCPST")'
p735
aS'R("R_ETOHtex")'
p736
aS'R("R_G6PDH2r")'
p737
aS'R("R_ENLIPAtex")'
p738
aS'R("R_EX_adn_e__Rev")'
p739
aS'R("R_EX_galt_e__Rev")'
p740
aS'R("R_SUCptspp")'
p741
aS'R("R_G6PDA")'
p742
aS'R("R_AMAOTr")'
p743
aS'R("R_EX_gthrd_e__Rev")'
p744
aS'R("R_PFK")'
p745
aS'R("R_FE3HOXUtex")'
p746
aS'R("R_3OAR160")'
p747
aS'R("R_NADPHQR4")'
p748
aS'R("R_FEENTERtpp")'
p749
aS'R("R_H2Otex")'
p750
aS'R("R_GNK")'
p751
aS'R("R_TMAtex_Rev")'
p752
aS'R("R_GLCATr_Rev")'
p753
aS'R("R_MALt2_2pp")'
p754
aS'R("R_XTSNtex")'
p755
aS'R("R_DSBDR")'
p756
aS'R("R_MG2tex")'
p757
aS'R("R_EX_pppn_e__Rev")'
p758
aS'R("R_LCTStex_Rev")'
p759
aS'R("R_ASNt2rpp_Rev")'
p760
aS'R("R_CGLYtex")'
p761
aS'R("R_BUTtex_Rev")'
p762
aS'R("R_MCTP2App")'
p763
aS'R("R_MDDEP2pp")'
p764
aS'R("R_PRPPS_Rev")'
p765
aS'R("R_F6PA")'
p766
aS'R("R_ABUTtex_Rev")'
p767
aS'R("R_EX_23ccmp_e__Rev")'
p768
aS'R("R_EX_feenter_e__Rev")'
p769
aS'R("R_NDPK4_Rev")'
p770
aS'R("R_PPGPPDP")'
p771
aS'R("R_GLCATr")'
p772
aS'R("R_LPLIPAL2A120")'
p773
aS'R("R_EX_cynt_e_")'
p774
aS'R("R_EX_udpglcur_e_")'
p775
aS'R("R_MPTG2")'
p776
aS'R("R_EX_tyrp_e_")'
p777
aS'R("R_ADNt2rpp")'
p778
aS'R("R_NI2tex")'
p779
aS'R("R_EX_lipa_e__Rev")'
p780
aS'R("R_NTP1")'
p781
aS'R("R_EX_lyx_L_e__Rev")'
p782
aS'R("R_EX_enlipa_e__Rev")'
p783
aS'R("R_ALAALAtex")'
p784
aS'R("R_DB4PS")'
p785
aS'R("R_PROt2rpp")'
p786
aS'R("R_FE3tex_Rev")'
p787
aS'R("R_AACPS3")'
p788
aS'R("R_CRNDCAL2")'
p789
aS'R("R_EX_tmao_e__Rev")'
p790
aS'R("R_ECAP3pp")'
p791
aS'R("R_AMANAPEr")'
p792
aS'R("R_H2tpp_Rev")'
p793
aS'R("R_PGM")'
p794
aS'R("R_GSPMDS")'
p795
aS'R("R_PE140abcpp")'
p796
aS'R("R_EX_cgly_e_")'
p797
aS'R("R_EX_cgly_e__Rev")'
p798
aS'R("R_FEOXAMtonex")'
p799
aS'R("R_EX_hacolipa_e_")'
p800
aS'R("R_23CAMPtex")'
p801
aS'R("R_AP4AH")'
p802
aS'R("R_EX_ppt_e_")'
p803
aS'R("R_PACCOAL")'
p804
aS'R("R_GLUR")'
p805
aS'R("R_GMHEPAT")'
p806
aS'R("R_PLIPA1E141pp")'
p807
aS'R("R_PHEMEtiex")'
p808
aS'R("R_GLYCAtex_Rev")'
p809
aS'R("R_DHPTPE_Rev")'
p810
aS'R("R_NO2t2rpp")'
p811
aS'R("R_TMAOtex")'
p812
aS'R("R_EX_mal_L_e_")'
p813
aS'R("R_ACGALtex_Rev")'
p814
aS'R("R_EX_feoxam_e_")'
p815
aS'R("R_EX_for_e_")'
p816
aS'R("R_EX_cys_D_e_")'
p817
aS'R("R_HG2tex_Rev")'
p818
aS'R("R_CLPNS120pp_Rev")'
p819
aS'R("R_TYROXDApp")'
p820
aS'R("R_XPPT")'
p821
aS'R("R_KDOPS")'
p822
aS'R("R_GTPDPDP")'
p823
aS'R("R_EX_idon_L_e__Rev")'
p824
aS'R("R_G3PGtex_Rev")'
p825
aS'R("R_GALURtex")'
p826
aS'R("R_ORPT")'
p827
aS'R("R_Zn2tex")'
p828
aS'R("R_ASPtex_Rev")'
p829
aS'R("R_CHORM")'
p830
aS'R("R_EX_kdo2lipid4_e__Rev")'
p831
aS'R("R_PHETA1")'
p832
aS'R("R_GPDDA3")'
p833
aS'R("R_EX_pacald_e_")'
p834
aS'R("R_EX_asn_L_e__Rev")'
p835
aS'R("R_CYTDK2")'
p836
aS'R("R_UM3PL")'
p837
aS'R("R_NTD9")'
p838
aS'R("R_CDAPPA181")'
p839
aS'R("R_GDMANE")'
p840
aS'R("R_EAR140y")'
p841
aS'R("R_GLUt2rpp")'
p842
aS'R("R_PSP_L")'
p843
aS'R("R_AIRC3")'
p844
aS'R("R_SERt2rpp")'
p845
aS'R("R_LPLIPAL2ATE120")'
p846
aS'R("R_FRULYSK")'
p847
aS'R("R_PLIPA2A181pp")'
p848
aS'R("R_AGM4PCP")'
p849
aS'R("R_UDPKAAT_Rev")'
p850
aS'R("R_NAt3_2pp")'
p851
aS'R("R_GLYCLTDy")'
p852
aS'R("R_UMPK_Rev")'
p853
aS'R("R_TKT1")'
p854
aS'R("R_DCYTtex")'
p855
aS'R("R_LA4NTpp")'
p856
aS'R("R_EX_glyc_e__Rev")'
p857
aS'R("R_FALGTHLs_Rev")'
p858
aS'R("R_EX_h_e__Rev")'
p859
aS'R("R_TRPt2rpp")'
p860
aS'R("R_ADNCYC")'
p861
aS'R("R_EX_g3pc_e__Rev")'
p862
aS'R("R_CRNt2rpp")'
p863
aS'R("R_INDOLEtex_Rev")'
p864
aS'R("R_FACOAE141")'
p865
aS'R("R_EX_aso3_e__Rev")'
p866
aS'R("R_PPPNtex_Rev")'
p867
aS'R("R_UGLCURPpp")'
p868
aS'R("R_EAR181y")'
p869
aS'R("R_EX_malttr_e_")'
p870
aS'R("R_GTPtex")'
p871
aS'R("R_SGDS")'
p872
aS'R("R_MACPD")'
p873
aS'R("R_EX_gthox_e__Rev")'
p874
aS'R("R_NPHS")'
p875
aS'R("R_ICHORT")'
p876
aS'R("R_CYSabc2pp")'
p877
aS'R("R_GTHRDHpp")'
p878
aS'R("R_EX_zn2_e__Rev")'
p879
aS'R("R_ACKr_Rev")'
p880
aS'R("R_FDH4pp")'
p881
aS'R("R_LPLIPAL1A141pp")'
p882
aS'R("R_KAT6")'
p883
aS'R("R_ARGTRS")'
p884
aS'R("R_XYLI1_Rev")'
p885
aS'R("R_ARGSS")'
p886
aS'R("R_ADK4")'
p887
aS'R("R_MALTHXabcpp")'
p888
aS'R("R_MDRPD")'
p889
aS'R("R_UPPDC1")'
p890
aS'R("R_CLPNS161pp_Rev")'
p891
aS'R("R_DHAtpp")'
p892
aS'R("R_GALCTtex_Rev")'
p893
aS'R("R_FRULYSE")'
p894
aS'R("R_FRULYSt2pp")'
p895
aS'R("R_NTP10")'
p896
aS'R("R_E4PD_Rev")'
p897
aS'R("R_GDPMNP")'
p898
aS'R("R_PA181abcpp")'
p899
aS'R("R_R1PK")'
p900
aS'R("R_3OAR80_Rev")'
p901
aS'R("R_FE3HOXabcpp")'
p902
aS'R("R_MICITD")'
p903
aS'R("R_NODOy")'
p904
aS'R("R_MELIBt2pp")'
p905
aS'R("R_DAPE")'
p906
aS'R("R_GTHOr")'
p907
aS'R("R_FRULYSE_Rev")'
p908
aS'R("R_ASAD_Rev")'
p909
aS'R("R_GALCTLO")'
p910
aS'R("R_ARBTNabcpp")'
p911
aS'R("R_DAPtex_Rev")'
p912
aS'R("R_URItex_Rev")'
p913
aS'R("R_EX_tungs_e_")'
p914
aS'R("R_PGP141abcpp")'
p915
aS'R("R_PSSA141")'
p916
aS'R("R_DGMPtex")'
p917
aS'R("R_EX_xan_e_")'
p918
aS'R("R_DASYN160")'
p919
aS'R("R_CRNt7pp")'
p920
aS'R("R_EX_cbl1_e__Rev")'
p921
aS'R("R_EX_idon_L_e_")'
p922
aS'R("R_LEUtex_Rev")'
p923
aS'R("R_AGPAT140")'
p924
aS'R("R_ACNAMtex")'
p925
aS'R("R_EX_udpacgal_e__Rev")'
p926
aS'R("R_TYRPtex_Rev")'
p927
aS'R("R_LPLIPAL1G140pp")'
p928
aS'R("R_THMtex")'
p929
aS'R("R_G6Ptex")'
p930
aS'R("R_MALTtexi")'
p931
aS'R("R_RMI_Rev")'
p932
aS'R("R_NO3R1pp")'
p933
aS'R("R_DTMPtex_Rev")'
p934
aS'R("R_PA180abcpp")'
p935
aS'R("R_12PPDStpp")'
p936
aS'R("R_EX_26dap_M_e_")'
p937
aS'R("R_O16GLCT2")'
p938
aS'R("R_ACOAD8f_Rev")'
p939
aS'R("R_EX_xylu_L_e_")'
p940
aS'R("R_GLYtex")'
p941
aS'R("R_COLIPAtex")'
p942
aS'R("R_NAtex")'
p943
aS'R("R_NDPK4")'
p944
aS'R("R_PLIPA2E180pp")'
p945
aS'R("R_ADSL1r_Rev")'
p946
aS'R("R_EX_nh4_e_")'
p947
aS'R("R_IDOND")'
p948
aS'R("R_SULFACtex_Rev")'
p949
aS'R("R_14GLUCANtexi")'
p950
aS'R("R_EX_sbt_D_e_")'
p951
aS'R("R_CYSDtex_Rev")'
p952
aS'R("R_DHAtex_Rev")'
p953
aS'R("R_EX_ttdcea_e_")'
p954
aS'R("R_BALAt2pp")'
p955
aS'R("R_ACOAD5f")'
p956
aS'R("R_FORtex")'
p957
aS'R("R_DDGLK")'
p958
aS'R("R_TKT1_Rev")'
p959
aS'R("R_EX_dca_e_")'
p960
aS'R("R_APRAUR")'
p961
aS'R("R_GALCTNLtex_Rev")'
p962
aS'R("R_ETHSO3abcpp")'
p963
aS'R("R_MCITL2_Rev")'
p964
aS'R("R_ACM6PH")'
p965
aS'R("R_AACPS7")'
p966
aS'R("R_EX_ppal_e__Rev")'
p967
aS'R("R_GLCNtex")'
p968
aS'R("R_EX_fald_e__Rev")'
p969
aS'R("R_MALTATr")'
p970
aS'R("R_PSCLYStex")'
p971
aS'R("R_G3PGabcpp")'
p972
aS'R("R_NTD12pp")'
p973
aS'R("R_EX_no_e_")'
p974
aS'R("R_XANtpp")'
p975
aS'R("R_INStex_Rev")'
p976
aS'R("R_EX_o16a4colipa_e_")'
p977
aS'R("R_FCI_Rev")'
p978
aS'R("R_EX_h2o2_e__Rev")'
p979
aS'R("R_NDPK6_Rev")'
p980
aS'R("R_MSO3tex_Rev")'
p981
aS'R("R_URIt2rpp_Rev")'
p982
aS'R("R_EX_pser_L_e__Rev")'
p983
aS'R("R_RPI")'
p984
aS'R("R_XMPtex_Rev")'
p985
aS'R("R_CO2tex")'
p986
aS'R("R_RMNtex")'
p987
aS'R("R_2AGPA120tipp")'
p988
aS'R("R_DHDPS")'
p989
aS'R("R_NTD6pp")'
p990
aS'R("R_THMtex_Rev")'
p991
aS'R("R_CDAPPA120")'
p992
aS'R("R_UDCPDP")'
p993
aS'R("R_CLPNH180pp")'
p994
aS'R("R_EX_orot_e_")'
p995
aS'R("R_EX_fe3_e__Rev")'
p996
aS'R("R_G1SAT_Rev")'
p997
aS'R("R_GLYBabcpp")'
p998
aS'R("R_FACOAE120")'
p999
aS'R("R_PGPP140")'
p1000
aS'R("R_SERTRS2")'
p1001
aS'R("R_GALTtex_Rev")'
p1002
aS'R("R_ALDD4")'
p1003
aS'R("R_LPLIPAL2E161")'
p1004
aS'R("R_NTPP3")'
p1005
aS'R("R_MLDCP1App")'
p1006
aS'R("R_PE141abcpp")'
p1007
aS'R("R_NTD8pp")'
p1008
aS'R("R_OHPBAT")'
p1009
aS'R("R_OHPBAT_Rev")'
p1010
aS'R("R_EX_damp_e__Rev")'
p1011
aS'R("R_URAtex")'
p1012
aS'R("R_EX_octa_e_")'
p1013
aS'R("R_GBBTNtex")'
p1014
aS'R("R_GLYtex_Rev")'
p1015
aS'R("R_MALTTTRabcpp")'
p1016
aS'R("R_KAS14")'
p1017
aS'R("R_NMNAT")'
p1018
aS'R("R_EX_sulfac_e_")'
p1019
aS'R("R_PPAt4pp")'
p1020
aS'R("R_ACOAD4f_Rev")'
p1021
aS'R("R_EX_15dap_e_")'
p1022
aS'R("R_EX_g3pc_e_")'
p1023
aS'R("R_RNDR2")'
p1024
aS'R("R_ACOAD2f")'
p1025
aS'R("R_FEENTERtex")'
p1026
aS'R("R_EX_cmp_e__Rev")'
p1027
aS'R("R_ASPCT")'
p1028
aS'R("R_3NTD7pp")'
p1029
aS'R("R_PLIPA1E140pp")'
p1030
aS'R("R_ASPTA_Rev")'
p1031
aS'R("R_EX_cytd_e__Rev")'
p1032
aS'R("R_PLIPA2E160pp")'
p1033
aS'R("R_EX_anhgm_e__Rev")'
p1034
aS'R("R_HEXt2rpp")'
p1035
aS'R("R_FALDtpp")'
p1036
aS'R("R_EX_ocdcea_e_")'
p1037
aS'R("R_HSST")'
p1038
aS'R("R_AACPS4")'
p1039
aS'R("R_ARBt2rpp_Rev")'
p1040
aS'R("R_4PEPTtex")'
p1041
aS'R("R_ALDD2x")'
p1042
aS'R("R_G1SAT")'
p1043
aS'R("R_EX_fe3hox_un_e_")'
p1044
aS'R("R_CYStex")'
p1045
aS'R("R_EX_ile_L_e__Rev")'
p1046
aS'R("R_EX_mg2_e__Rev")'
p1047
aS'R("R_DAGK160")'
p1048
aS'R("R_SHK3Dr")'
p1049
aS'R("R_L_LACtex")'
p1050
aS'R("R_23CGMPtex_Rev")'
p1051
aS'R("R_NMNDA")'
p1052
aS'R("R_EX_tungs_e__Rev")'
p1053
aS'R("R_R5PP")'
p1054
aS'R("R_EX_gly_e_")'
p1055
aS'R("R_FUCtex_Rev")'
p1056
aS'R("R_EX_4hoxpacd_e_")'
p1057
aS'R("R_EX_acald_e_")'
p1058
aS'R("R_ECOAH2")'
p1059
aS'R("R_EX_gbbtn_e_")'
p1060
aS'R("R_12PPDStpp_Rev")'
p1061
aS'R("R_UAAGDS")'
p1062
aS'R("R_EX_colipa_e__Rev")'
p1063
aS'R("R_K2L4Atex")'
p1064
aS'R("R_DMATT")'
p1065
aS'R("R_TREtex_Rev")'
p1066
aS'R("R_EAR121y")'
p1067
aS'R("R_EX_mobd_e__Rev")'
p1068
aS'R("R_ASNtex")'
p1069
aS'R("R_FACOAL80t2pp")'
p1070
aS'R("R_DAGK140")'
p1071
aS'R("R_FE3DCITtonex")'
p1072
aS'R("R_MNLptspp")'
p1073
aS'R("R_PLIPA2A161pp")'
p1074
aS'R("R_EX_arab_L_e_")'
p1075
aS'R("R_CTBTCAL2")'
p1076
aS'R("R_MLTG1")'
p1077
aS'R("R_LPLIPAL2ATE140")'
p1078
aS'R("R_EX_cbi_e__Rev")'
p1079
aS'R("R_GPDDA4")'
p1080
aS'R("R_5DGLCNtex_Rev")'
p1081
aS'R("R_EX_acgam1p_e_")'
p1082
aS'R("R_FADRx2")'
p1083
aS'R("R_G3PAT160")'
p1084
aS'R("R_EX_h_e_")'
p1085
aS'R("R_EX_dms_e__Rev")'
p1086
aS'R("R_EX_thym_e_")'
p1087
aS'R("R_GLU5K")'
p1088
aS'R("R_GPDDA1")'
p1089
aS'R("R_LPLIPAL1E120pp")'
p1090
aS'R("R_ARGabcpp")'
p1091
aS'R("R_ZN2tpp")'
p1092
aS'R("R_2AGPA180tipp")'
p1093
aS'R("R_TMAOR2pp")'
p1094
aS'R("R_SO3tex_Rev")'
p1095
aS'R("R_MTRI_Rev")'
p1096
aS'R("R_PPM_Rev")'
p1097
aS'R("R_DCTPD")'
p1098
aS'R("R_2AGPE181tipp")'
p1099
aS'R("R_CLPNS181pp")'
p1100
aS'R("R_EX_gmp_e__Rev")'
p1101
aS'R("R_FCLPA")'
p1102
aS'R("R_GALS3")'
p1103
aS'R("R_XYLt2pp")'
p1104
aS'R("R_MNtex_Rev")'
p1105
aS'R("R_EX_progly_e_")'
p1106
aS'R("R_ARBTNR2")'
p1107
aS'R("R_AGMT")'
p1108
aS'R("R_EX_ascb_L_e__Rev")'
p1109
aS'R("R_FLVR")'
p1110
aS'R("R_PA140abcpp")'
p1111
aS'R("R_TKT2_Rev")'
p1112
aS'R("R_HEPT2")'
p1113
aS'R("R_EX_leu_L_e_")'
p1114
aS'R("R_UDPGD")'
p1115
aS'R("R_XYLUt2pp")'
p1116
aS'R("R_EX_melib_e__Rev")'
p1117
aS'R("R_PYDXPP")'
p1118
aS'R("R_AGM4Pt2pp")'
p1119
aS'R("R_EX_gal1p_e_")'
p1120
aS'R("R_PLIPA2A120pp")'
p1121
aS'R("R_THIORDXi")'
p1122
aS'R("R_HACD3i")'
p1123
aS'R("R_GAMAN6Ptex")'
p1124
aS'R("R_SO4tex")'
p1125
aS'R("R_PPKr_Rev")'
p1126
aS'R("R_ACOLIPAtex")'
p1127
aS'R("R_MALDt2_2pp")'
p1128
aS'R("R_EX_xan_e__Rev")'
p1129
aS'R("R_LPLIPAL2ATE160")'
p1130
aS'R("R_OPHHX")'
p1131
aS'R("R_F6Pt6_2pp")'
p1132
aS'R("R_DUTPDP")'
p1133
aS'R("R_EX_ocdca_e__Rev")'
p1134
aS'R("R_PYRtex")'
p1135
aS'R("R_SHSL1")'
p1136
aS'R("R_EX_asp_L_e__Rev")'
p1137
aS'R("R_ICHORSi")'
p1138
aS'R("R_EX_etha_e_")'
p1139
aS'R("R_HPYRRy")'
p1140
aS'R("R_PAPPT3")'
p1141
aS'R("R_EX_thrp_e__Rev")'
p1142
aS'R("R_PG140abcpp")'
p1143
aS'R("R_PLIPA1E160pp")'
p1144
aS'R("R_ALAALAtex_Rev")'
p1145
aS'R("R_GTHOr_Rev")'
p1146
aS'R("R_PGMT_Rev")'
p1147
aS'R("R_UHGADA")'
p1148
aS'R("R_ALAALAr")'
p1149
aS'R("R_PGPP180")'
p1150
aS'R("R_EX_alltn_e__Rev")'
p1151
aS'R("R_EX_glcur_e_")'
p1152
aS'R("R_CUtex_Rev")'
p1153
aS'R("R_EX_uri_e_")'
p1154
aS'R("R_EAR180x")'
p1155
aS'R("R_DRPA")'
p1156
aS'R("R_ASPabcpp")'
p1157
aS'R("R_MALS")'
p1158
aS'R("R_TRE6PS")'
p1159
aS'R("R_SBTtex_Rev")'
p1160
aS'R("R_SPODM")'
p1161
aS'R("R_KG6PDC")'
p1162
aS'R("R_EX_gal_bD_e_")'
p1163
aS'R("R_S7PI")'
p1164
aS'R("R_ADCL")'
p1165
aS'R("R_PDH")'
p1166
aS'R("R_PTPATi")'
p1167
aS'R("R_R5Ptex_Rev")'
p1168
aS'R("R_MALTTRtexi")'
p1169
aS'R("R_EX_mmet_e_")'
p1170
aS'R("R_EAR60y")'
p1171
aS'R("R_EX_tartr_L_e_")'
p1172
aS'R("R_GSNt2pp")'
p1173
aS'R("R_DAPtex")'
p1174
aS'R("R_3OAR60")'
p1175
aS'R("R_FA140ACPHi")'
p1176
aS'R("R_HEX7")'
p1177
aS'R("R_ASCBtex_Rev")'
p1178
aS'R("R_ACALDtex_Rev")'
p1179
aS'R("R_DAAD")'
p1180
aS'R("R_NDPK3")'
p1181
aS'R("R_NH4tpp")'
p1182
aS'R("R_PNTOtex_Rev")'
p1183
aS'R("R_LCARR_Rev")'
p1184
aS'R("R_RNDR2b")'
p1185
aS'R("R_GLCt2pp")'
p1186
aS'R("R_EX_dcyt_e__Rev")'
p1187
aS'R("R_CYANtex")'
p1188
aS'R("R_3OAS181")'
p1189
aS'R("R_PGMT")'
p1190
aS'R("R_ARBt2rpp")'
p1191
aS'R("R_EX_3ump_e_")'
p1192
aS'R("R_SBTPD")'
p1193
aS'R("R_THRD")'
p1194
aS'R("R_DHORD5")'
p1195
aS'R("R_RHCCE")'
p1196
aS'R("R_NDPK3_Rev")'
p1197
aS'R("R_5DGLCNt2rpp")'
p1198
aS'R("R_CRNCAR_Rev")'
p1199
aS'R("R_GTPCI")'
p1200
aS'R("R_DADK_Rev")'
p1201
aS'R("R_MELIBt3ipp")'
p1202
aS'R("R_EX_feoxam_un_e_")'
p1203
aS'R("R_AAMYLpp")'
p1204
aS'R("R_ECOAH3_Rev")'
p1205
aS'R("R_DIMPtex")'
p1206
aS'R("R_EX_dump_e__Rev")'
p1207
aS'R("R_UACGAMtex_Rev")'
p1208
aS'R("R_FE2t3pp")'
p1209
aS'R("R_ACOAD4f")'
p1210
aS'R("R_EX_g1p_e_")'
p1211
aS'R("R_TRPS2")'
p1212
aS'R("R_DXPRIi")'
p1213
aS'R("R_SUCBZS")'
p1214
aS'R("R_SERt4pp")'
p1215
aS'R("R_LALDO2x")'
p1216
aS'R("R_OHPHM")'
p1217
aS'R("R_EX_3hcinnm_e_")'
p1218
aS'R("R_EX_orn_e_")'
p1219
aS'R("R_EX_so4_e__Rev")'
p1220
aS'R("R_EX_mal_D_e_")'
p1221
aS'R("R_EX_eca4colipa_e_")'
p1222
aS'R("R_ADEtex")'
p1223
aS'R("R_GGGABADr")'
p1224
aS'R("R_TTDCEAtexi")'
p1225
aS'R("R_LPLIPAL2A180")'
p1226
aS'R("R_GALURtex_Rev")'
p1227
aS'R("R_EX_skm_e_")'
p1228
aS'R("R_GND")'
p1229
aS'R("R_HSDy")'
p1230
aS'R("R_EX_glyb_e_")'
p1231
aS'R("R_LPLIPAL2G140")'
p1232
aS'R("R_12DGR181tipp")'
p1233
aS'R("R_EAR140x")'
p1234
aS'R("R_ALLabcpp")'
p1235
aS'R("R_INSTtex_Rev")'
p1236
aS'R("R_CYSS")'
p1237
aS'R("R_HPPPNtex_Rev")'
p1238
aS'R("R_CADVtpp")'
p1239
aS'R("R_EX_isetac_e_")'
p1240
aS'R("R_EX_acser_e__Rev")'
p1241
aS'R("R_2AGPA141tipp")'
p1242
aS'R("R_PYAM5PO")'
p1243
aS'R("R_EX_rib_D_e_")'
p1244
aS'R("R_LPLIPAL2G160")'
p1245
aS'R("R_EX_lcts_e_")'
p1246
aS'R("R_ASPO6")'
p1247
aS'R("R_GLYt4pp")'
p1248
aS'R("R_HXPRT")'
p1249
aS'R("R_ISETACabcpp")'
p1250
aS'R("R_PUNP3")'
p1251
aS'R("R_PPAtex")'
p1252
aS'R("R_MMETtex_Rev")'
p1253
aS'R("R_THRt2pp")'
p1254
aS'R("R_EX_arg_L_e__Rev")'
p1255
aS'R("R_R5Ptex")'
p1256
aS'R("R_UPP3MT")'
p1257
aS'R("R_CPGNR2")'
p1258
aS'R("R_CDAPPA160")'
p1259
aS'R("R_PGPP120pp")'
p1260
aS'R("R_G1PTT")'
p1261
aS'R("R_TGBPA")'
p1262
aS'R("R_PGLYCP")'
p1263
aS'R("R_DHAtpp_Rev")'
p1264
aS'R("R_2AGPG140tipp")'
p1265
aS'R("R_5DOAN")'
p1266
aS'R("R_FORtex_Rev")'
p1267
aS'R("R_FEOXAMabcpp")'
p1268
aS'R("R_MALTPTabcpp")'
p1269
aS'R("R_FACOAL161t2pp")'
p1270
aS'R("R_AGMtex")'
p1271
aS'R("R_GALCTNLtex")'
p1272
aS'R("R_PE160abcpp")'
p1273
aS'R("R_Kt3pp")'
p1274
aS'R("R_R5PPpp")'
p1275
aS'R("R_LYStex_Rev")'
p1276
aS'R("R_TMPPP")'
p1277
aS'R("R_EX_damp_e_")'
p1278
aS'R("R_EX_all_D_e__Rev")'
p1279
aS'R("R_TMK")'
p1280
aS'R("R_RBFSb")'
p1281
aS'R("R_SERt2rpp_Rev")'
p1282
aS'R("R_THRPtex")'
p1283
aS'R("R_ALCD2x_Rev")'
p1284
aS'R("R_EX_tym_e_")'
p1285
aS'R("R_XANt2pp")'
p1286
aS'R("R_PSSA120")'
p1287
aS'R("R_ACKr")'
p1288
aS'R("R_ASPTA")'
p1289
aS'R("R_CYTK1")'
p1290
aS'R("R_GAPD_Rev")'
p1291
aS'R("R_EX_inost_e_")'
p1292
aS'R("R_ETOHtex_Rev")'
p1293
aS'R("R_METSOX2tex")'
p1294
aS'R("R_GSNK")'
p1295
aS'R("R_EX_dca_e__Rev")'
p1296
aS'R("R_METDtex_Rev")'
p1297
aS'R("R_MLTG2")'
p1298
aS'R("R_EX_ala_D_e_")'
p1299
aS'R("R_FECRMUtpp")'
p1300
aS'R("R_XTSNH")'
p1301
aS'R("R_CRNBTCT_Rev")'
p1302
aS'R("R_HG2abcpp")'
p1303
aS'R("R_CYTBO3_4pp")'
p1304
aS'R("R_23PDE4pp")'
p1305
aS'R("R_NACODA")'
p1306
aS'R("R_AMPTASECG")'
p1307
aS'R("R_Kabcpp")'
p1308
aS'R("R_THMDtex")'
p1309
aS'R("R_PTAr_Rev")'
p1310
aS'R("R_ASO3tex")'
p1311
aS'R("R_ACt2rpp_Rev")'
p1312
aS'R("R_LCTStpp")'
p1313
aS'R("R_ALATA_L_Rev")'
p1314
aS'R("R_ARGDC")'
p1315
aS'R("R_SUCCt2_2pp")'
p1316
aS'R("R_G3PStex")'
p1317
aS'R("R_2DGULRx")'
p1318
aS'R("R_EX_ala_L_e_")'
p1319
aS'R("R_G6PP")'
p1320
aS'R("R_PGSA180")'
p1321
aS'R("R_EX_ala_D_e__Rev")'
p1322
aS'R("R_CYANSTpp")'
p1323
aS'R("R_GLNtex")'
p1324
aS'R("R_EX_glyc2p_e_")'
p1325
aS'R("R_CRNabcpp")'
p1326
aS'R("R_GLUDy_Rev")'
p1327
aS'R("R_LPLIPAL1G181pp")'
p1328
aS'R("R_HXAtex")'
p1329
aS'R("R_H2O2tex_Rev")'
p1330
aS'R("R_EX_tmao_e_")'
p1331
aS'R("R_EX_glyc3p_e__Rev")'
p1332
aS'R("R_AGM4PApp")'
p1333
aS'R("R_HIStex_Rev")'
p1334
aS'R("R_GAL1Ptex")'
p1335
aS'R("R_3NTD2pp")'
p1336
aS'R("R_MELIBtex_Rev")'
p1337
aS'R("R_ALLTNtex")'
p1338
aS'R("R_PACALDtex_Rev")'
p1339
aS'R("R_GLYCtpp_Rev")'
p1340
aS'R("R_EX_aso3_e_")'
p1341
aS'R("R_ICL")'
p1342
aS'R("R_MDDCP1pp")'
p1343
aS'R("R_EX_arbtn_e_")'
p1344
aS'R("R_PGSA141")'
p1345
aS'R("R_EX_glyc_e_")'
p1346
aS'R("R_EX_amp_e_")'
p1347
aS'R("R_EX_fuc_L_e_")'
p1348
aS'R("R_EX_feoxam_e__Rev")'
p1349
aS'R("R_PUNP3_Rev")'
p1350
aS'R("R_PPAtex_Rev")'
p1351
aS'R("R_PA120abcpp")'
p1352
aS'R("R_EX_cu_e_")'
p1353
aS'R("R_DHCIND")'
p1354
aS'R("R_ECOAH5")'
p1355
aS'R("R_EX_gsn_e__Rev")'
p1356
aS'R("R_DHORTS_Rev")'
p1357
aS'R("R_UDPGLCURtex_Rev")'
p1358
aS'R("R_FEENTERabcpp")'
p1359
aS'R("R_CBMKr_Rev")'
p1360
aS'R("R_ACONMT")'
p1361
aS'R("R_EX_mg2_e_")'
p1362
aS'R("R_URIDK2r")'
p1363
aS'R("R_HEPT1")'
p1364
aS'R("R_GGGABAH")'
p1365
aS'R("R_EX_ddca_e_")'
p1366
aS'R("R_PTRCTA")'
p1367
aS'R("R_2AGPA140tipp")'
p1368
aS'R("R_BUTt2rpp_Rev")'
p1369
aS'R("R_CDAPPA140")'
p1370
aS'R("R_MOAT")'
p1371
aS'R("R_ACt4pp")'
p1372
aS'R("R_PGK")'
p1373
aS'R("R_CYTK2_Rev")'
p1374
aS'R("R_DKGLCNR2x")'
p1375
aS'R("R_12PPDRtex_Rev")'
p1376
aS'R("R_EX_gln_L_e__Rev")'
p1377
aS'R("R_GUI1")'
p1378
aS'R("R_EX_tsul_e__Rev")'
p1379
aS'R("R_EX_ser_D_e_")'
p1380
aS'R("R_DXPS")'
p1381
aS'R("R_GLYCLTtex")'
p1382
aS'R("R_ASNNpp")'
p1383
aS'R("R_ACALDtpp_Rev")'
p1384
aS'R("R_GLCUR1Ptex")'
p1385
aS'R("R_PLIPA2G180pp")'
p1386
aS'R("R_EX_k_e_")'
p1387
aS'R("R_OAADC")'
p1388
aS'R("R_EX_pheme_e__Rev")'
p1389
aS'R("R_ADK3_Rev")'
p1390
aS'R("R_CBItonex")'
p1391
aS'R("R_EX_fe2_e__Rev")'
p1392
aS'R("R_ASPt2_2pp")'
p1393
aS'R("R_ECOAH7")'
p1394
aS'R("R_PLIPA2G181pp")'
p1395
aS'R("R_EX_leu_L_e__Rev")'
p1396
aS'R("R_NTPP5")'
p1397
aS'R("R_LIPACabcpp")'
p1398
aS'R("R_EAR40y")'
p1399
aS'R("R_FRUtex")'
p1400
aS'R("R_HYXNtpp")'
p1401
aS'R("R_O16GALFT")'
p1402
aS'R("R_HCINNMtex")'
p1403
aS'R("R_EX_succ_e_")'
p1404
aS'R("R_GALUi")'
p1405
aS'R("R_ALATA_D2")'
p1406
aS'R("R_G3PD6")'
p1407
aS'R("R_EX_g6p_e__Rev")'
p1408
aS'R("R_EX_dmso_e_")'
p1409
aS'R("R_EX_halipa_e__Rev")'
p1410
aS'R("R_ACMANAptspp")'
p1411
aS'R("R_FECRMR2")'
p1412
aS'R("R_EX_dgmp_e__Rev")'
p1413
aS'R("R_NTD2")'
p1414
aS'R("R_Htex_Rev")'
p1415
aS'R("R_TMAOR2")'
p1416
aS'R("R_LPLIPAL2E120")'
p1417
aS'R("R_UDPGtex")'
p1418
aS'R("R_ACNAMt2pp")'
p1419
aS'R("R_ALAGLUE")'
p1420
aS'R("R_DUMPtex_Rev")'
p1421
aS'R("R_METtex")'
p1422
aS'R("R_GTPtex_Rev")'
p1423
aS'R("R_CO2tpp")'
p1424
aS'R("R_EX_gal1p_e__Rev")'
p1425
aS'R("R_EX_urea_e_")'
p1426
aS'R("R_GLYALDtex_Rev")'
p1427
aS'R("R_MTHFR2")'
p1428
aS'R("R_UPPRT")'
p1429
aS'R("R_RNDR3b")'
p1430
aS'R("R_CU2tex_Rev")'
p1431
aS'R("R_GLYALDtpp")'
p1432
aS'R("R_EX_h2s_e__Rev")'
p1433
aS'R("R_EX_cit_e_")'
p1434
aS'R("R_ATPPRT")'
p1435
aS'R("R_ACONTa_Rev")'
p1436
aS'R("R_EX_rmn_e__Rev")'
p1437
aS'R("R_DHPTDCs")'
p1438
aS'R("R_LPLIPAL1G161pp")'
p1439
aS'R("R_HPYRI_Rev")'
p1440
aS'R("R_PLIPA1A141pp")'
p1441
aS'R("R_CD2t3pp")'
p1442
aS'R("R_PERD_Rev")'
p1443
aS'R("R_GALabcpp")'
p1444
aS'R("R_EX_galt_e_")'
p1445
aS'R("R_ADNUC")'
p1446
aS'R("R_CD2tex_Rev")'
p1447
aS'R("R_DAGK120")'
p1448
aS'R("R_EX_all_D_e_")'
p1449
aS'R("R_ADOCBIK")'
p1450
aS'R("R_EX_g3pg_e_")'
p1451
aS'R("R_LCARS_Rev")'
p1452
aS'R("R_VALTRS")'
p1453
aS'R("R_EX_12ppd_S_e__Rev")'
p1454
aS'R("R_Ktex_Rev")'
p1455
aS'R("R_3OAS80")'
p1456
aS'R("R_12PPDRtex")'
p1457
aS'R("R_EX_acac_e__Rev")'
p1458
aS'R("R_3OAS141")'
p1459
aS'R("R_DDGLCNt2rpp")'
p1460
aS'R("R_LPLIPAL2ATE181")'
p1461
aS'R("R_23CCMPtex_Rev")'
p1462
aS'R("R_EX_acgam_e__Rev")'
p1463
aS'R("R_PEAMNtex_Rev")'
p1464
aS'R("R_ALLTNtex_Rev")'
p1465
aS'R("R_CLt3_2pp")'
p1466
aS'R("R_FE2tpp")'
p1467
aS'R("R_LPLIPAL2ATE180")'
p1468
aS'R("R_ASNN")'
p1469
aS'R("R_MANGLYCptspp")'
p1470
aS'R("R_EX_23dappa_e__Rev")'
p1471
aS'R("R_3OAR121")'
p1472
aS'R("R_DTMPK")'
p1473
aS'R("R_FA100ACPHi")'
p1474
aS'R("R_METSOX1tex_Rev")'
p1475
aS'R("R_PLIPA1G140pp")'
p1476
aS'R("R_DGSNt2pp")'
p1477
aS'R("R_LPLIPAL2G120")'
p1478
aS'R("R_FRD2")'
p1479
aS'R("R_RBK_L1")'
p1480
aS'R("R_CYSDDS")'
p1481
aS'R("R_2AGPEAT141")'
p1482
aS'R("R_EX_glyb_e__Rev")'
p1483
aS'R("R_CYStex_Rev")'
p1484
aS'R("R_TYRTA_Rev")'
p1485
aS'R("R_GPDDA2")'
p1486
aS'R("R_MG2tpp")'
p1487
aS'R("R_ETOHt2rpp")'
p1488
aS'R("R_LEUt2rpp")'
p1489
aS'R("R_Zn2tex_Rev")'
p1490
aS'R("R_SERtex")'
p1491
aS'R("R_PG141abcpp")'
p1492
aS'R("R_EX_dha_e_")'
p1493
aS'R("R_CUtex")'
p1494
aS'R("R_EX_ac_e_")'
p1495
aS'R("R_XYLUtex")'
p1496
aS'R("R_EX_lys_L_e_")'
p1497
aS'R("R_SERAT_Rev")'
p1498
aS'R("R_VPAMT")'
p1499
aS'R("R_NTD8")'
p1500
aS'R("R_NADPHQR3")'
p1501
aS'R("R_EX_metsox_S_L_e__Rev")'
p1502
aS'R("R_GMPtex")'
p1503
aS'R("R_EX_cd2_e_")'
p1504
aS'R("R_CYANST")'
p1505
aS'R("R_LIPAHT2ex")'
p1506
aS'R("R_HG2t3pp")'
p1507
aS'R("R_CYTDH")'
p1508
aS'R("R_QMO3")'
p1509
aS'R("R_UAG2E")'
p1510
aS'R("R_VALtex")'
p1511
aS'R("R_FUCtpp")'
p1512
aS'R("R_RIBtex_Rev")'
p1513
aS'R("R_UPP3S")'
p1514
aS'R("R_GLUN")'
p1515
aS'R("R_EX_alaala_e__Rev")'
p1516
aS'R("R_HOMt2pp")'
p1517
aS'R("R_12PPDRtpp")'
p1518
aS'R("R_HMPK1")'
p1519
aS'R("R_CYNTt2pp")'
p1520
aS'R("R_EX_gtp_e__Rev")'
p1521
aS'R("R_EX_pi_e_")'
p1522
aS'R("R_EX_metsox_S_L_e_")'
p1523
aS'R("R_EX_phe_L_e__Rev")'
p1524
aS'R("R_EX_glu_L_e__Rev")'
p1525
aS'R("R_26DAHtex")'
p1526
aS'R("R_PPBNGS")'
p1527
aS'R("R_MCTP1Bpp")'
p1528
aS'R("R_MLTP3")'
p1529
aS'R("R_TAURabcpp")'
p1530
aS'R("R_EX_h2s_e_")'
p1531
aS'R("R_DDPGALA")'
p1532
aS'R("R_GALCTNt2pp")'
p1533
aS'R("R_BETALDHx")'
p1534
aS'R("R_THRtex")'
p1535
aS'R("R_5DGLCNt2rpp_Rev")'
p1536
aS'R("R_PGP140abcpp")'
p1537
aS'R("R_ECA4OALpp")'
p1538
aS'R("R_ANHMK")'
p1539
aS'R("R_TTDCAtexi")'
p1540
aS'R("R_AGM3PA")'
p1541
aS'R("R_PRAIS")'
p1542
aS'R("R_EX_mobd_e_")'
p1543
aS'R("R_NADN")'
p1544
aS'R("R_TRPTRS")'
p1545
aS'R("R_AADDGT")'
p1546
aS'R("R_GLUSy")'
p1547
aS'R("R_IDONt2rpp_Rev")'
p1548
aS'R("R_AGM3PH")'
p1549
aS'R("R_LPLIPAL1A140pp")'
p1550
aS'R("R_TAURtex_Rev")'
p1551
aS'R("R_FUMt2_2pp")'
p1552
aS'R("R_DDGLCNt2rpp_Rev")'
p1553
aS'R("R_OCDCAtexi")'
p1554
aS'R("R_EX_tcynt_e__Rev")'
p1555
aS'R("R_EX_nmn_e__Rev")'
p1556
aS'R("R_GMPS2")'
p1557
aS'R("R_EX_ppa_e__Rev")'
p1558
aS'R("R_G3PEabcpp")'
p1559
aS'R("R_Ktex")'
p1560
aS'R("R_EX_gthrd_e_")'
p1561
aS'R("R_MLDEP1pp")'
p1562
aS'R("R_UAMAS")'
p1563
aS'R("R_DADNt2pp")'
p1564
aS'R("R_INOSTt4pp")'
p1565
aS'R("R_EAR181x")'
p1566
aS'R("R_FACOAE140")'
p1567
aS'R("R_EX_gbbtn_e__Rev")'
p1568
aS'R("R_MEPCT")'
p1569
aS'R("R_CFAS160G")'
p1570
aS'R("R_3PEPTabcpp")'
p1571
aS'R("R_OCBT")'
p1572
aS'R("R_MMCD")'
p1573
aS'R("R_SELCYSS")'
p1574
aS'R("R_EX_3gmp_e_")'
p1575
aS'R("R_TDPDRR")'
p1576
aS'R("R_HPPPNtex")'
p1577
aS'R("R_GPDDA4pp")'
p1578
aS'R("R_PAPA120pp")'
p1579
aS'R("R_NTD1pp")'
p1580
aS'R("R_GLYC3Ptex_Rev")'
p1581
aS'R("R_ICHORS_Rev")'
p1582
aS'R("R_EX_man6p_e_")'
p1583
aS'R("R_TKT2")'
p1584
aS'R("R_TRPAS2")'
p1585
aS'R("R_GALCTNtex")'
p1586
aS'R("R_EX_pheme_e_")'
p1587
aS'R("R_EX_mnl_e_")'
p1588
aS'R("R_HPYRRx")'
p1589
aS'R("R_EX_glyc3p_e_")'
p1590
aS'R("R_EX_gtp_e_")'
p1591
aS'R("R_GLCtex_Rev")'
p1592
aS'R("R_TAUDO")'
p1593
aS'R("R_TREHpp")'
p1594
aS'R("R_FE3HOXR2")'
p1595
aS'R("R_XYLK")'
p1596
aS'R("R_DURIK1")'
p1597
aS'R("R_ACOTA")'
p1598
aS'R("R_LPLIPAL2ATG160")'
p1599
aS'R("R_METOX1s")'
p1600
aS'R("R_PSERtex")'
p1601
aS'R("R_CSNtex")'
p1602
aS'R("R_DASYN120")'
p1603
aS'R("R_CLPNH161pp")'
p1604
aS'R("R_DOPAtex_Rev")'
p1605
aS'R("R_ILETA_Rev")'
p1606
aS'R("R_EX_3amp_e__Rev")'
p1607
aS'R("R_KAT5")'
p1608
aS'R("R_3NTD9pp")'
p1609
aS'R("R_LCARS")'
p1610
aS'R("R_HKNTDH")'
p1611
aS'R("R_CPPPGO2")'
p1612
aS'R("R_ACPS1")'
p1613
aS'R("R_X5PL3E")'
p1614
aS'R("R_HISt2rpp_Rev")'
p1615
aS'R("R_PTRCORNt7pp")'
p1616
aS'R("R_EX_12ppd_R_e_")'
p1617
aS'R("R_MLTGY4pp")'
p1618
aS'R("R_XAND")'
p1619
aS'R("R_UREAtpp")'
p1620
aS'R("R_G1Ptex")'
p1621
aS'R("R_CYSDabcpp")'
p1622
aS'R("R_3OAR141")'
p1623
aS'R("R_HACD7i")'
p1624
aS'R("R_EX_LalaDgluMdapDala_e_")'
p1625
aS'R("R_CRNCBCT_Rev")'
p1626
aS'R("R_GLUtex")'
p1627
aS'R("R_FECRMR1")'
p1628
aS'R("R_HISabcpp")'
p1629
aS'R("R_GLNTRS")'
p1630
aS'R("R_HYXNtex")'
p1631
aS'R("R_EX_cl_e__Rev")'
p1632
aS'R("R_THRAi")'
p1633
aS'R("R_EX_ump_e_")'
p1634
aS'R("R_RNDR1b")'
p1635
aS'R("R_EX_dcmp_e__Rev")'
p1636
aS'R("R_PGPP181pp")'
p1637
aS'R("R_EX_fe3dcit_e_")'
p1638
aS'R("R_EX_3hpppn_e_")'
p1639
aS'R("R_NTRIR4pp")'
p1640
aS'R("R_EX_xyl_D_e_")'
p1641
aS'R("R_COBALT2tex_Rev")'
p1642
aS'R("R_CLPNH181pp")'
p1643
aS'R("R_EX_mn2_e_")'
p1644
aS'R("R_EX_manglyc_e_")'
p1645
aS'R("R_CYNTtex_Rev")'
p1646
aS'R("R_PLIPA1E120pp")'
p1647
aS'R("R_2AGPG161tipp")'
p1648
aS'R("R_ACOAD1f")'
p1649
aS'R("R_NTPP2")'
p1650
aS'R("R_EX_gal_bD_e__Rev")'
p1651
aS'R("R_EX_34dhpac_e__Rev")'
p1652
aS'R("R_ECOAH4")'
p1653
aS'R("R_EX_ala_B_e__Rev")'
p1654
aS'R("R_MDDEP4pp")'
p1655
aS'R("R_EX_peamn_e__Rev")'
p1656
aS'R("R_CYSDtex")'
p1657
aS'R("R_DUMPtex")'
p1658
aS'R("R_H2Otpp_Rev")'
p1659
aS'R("R_LPLIPAL2E160")'
p1660
aS'R("R_CPGNUtpp")'
p1661
aS'R("R_EX_acgal1p_e__Rev")'
p1662
aS'R("R_CD2tpp")'
p1663
aS'R("R_MMETt2pp")'
p1664
aS'R("R_EX_udpgal_e_")'
p1665
aS'R("R_EX_dtmp_e__Rev")'
p1666
aS'R("R_FA141ACPHi")'
p1667
aS'R("R_G3PItex")'
p1668
aS'R("R_LEUTAi")'
p1669
aS'R("R_LYXtex")'
p1670
aS'R("R_URAt2pp")'
p1671
aS'R("R_EX_kdo2lipid4_e_")'
p1672
aS'R("R_LPLIPAL2E141")'
p1673
aS'R("R_HACD4i")'
p1674
aS'R("R_TRSARr_Rev")'
p1675
aS'R("R_SDPTA")'
p1676
aS'R("R_ALLtex")'
p1677
aS'R("R_MDDCP5pp")'
p1678
aS'R("R_ALCD19")'
p1679
aS'R("R_SPMDtex_Rev")'
p1680
aS'R("R_G3PCtex_Rev")'
p1681
aS'R("R_FALDtpp_Rev")'
p1682
aS'R("R_GALBDtex_Rev")'
p1683
aS'R("R_TDPGDH")'
p1684
aS'R("R_H2Otpp")'
p1685
aS'R("R_PUNP4")'
p1686
aS'R("R_PMPK")'
p1687
aS'R("R_EX_eca4colipa_e__Rev")'
p1688
aS'R("R_FDMO4")'
p1689
aS'R("R_ASNS1")'
p1690
aS'R("R_DOGULNR")'
p1691
aS'R("R_EX_g3pi_e__Rev")'
p1692
aS'R("R_DCYTt2pp")'
p1693
aS'R("R_EX_cytd_e_")'
p1694
aS'R("R_EX_ppt_e__Rev")'
p1695
aS'R("R_ACGAM1PPpp")'
p1696
aS'R("R_TMDPP")'
p1697
aS'R("R_EAR100x")'
p1698
aS'R("R_BUTtex")'
p1699
aS'R("R_THRtex_Rev")'
p1700
aS'R("R_HDCEAtexi")'
p1701
aS'R("R_CMPtex_Rev")'
p1702
aS'R("R_FRD3")'
p1703
aS'R("R_TDSK")'
p1704
aS'R("R_FUMtex")'
p1705
aS'R("R_PLIPA2A180pp")'
p1706
aS'R("R_PPK2r")'
p1707
aS'R("R_2AGPEAT181")'
p1708
aS'R("R_NADH9")'
p1709
aS'R("R_EX_o2_e_")'
p1710
aS'R("R_PUNP1_Rev")'
p1711
aS'R("R_G2PPpp")'
p1712
aS'R("R_EX_galctn_D_e_")'
p1713
aS'R("R_P5CD")'
p1714
aS'R("R_LGTHL")'
p1715
aS'R("R_EAR161x")'
p1716
aS'R("R_ICDHyr")'
p1717
aS'R("R_CUt3")'
p1718
aS'R("R_NTPTP2")'
p1719
aS'R("R_EX_r5p_e_")'
p1720
aS'R("R_LYXtex_Rev")'
p1721
aS'R("R_ALCD19_Rev")'
p1722
aS'R("R_2AGPE120tipp")'
p1723
aS'R("R_EAR40x")'
p1724
aS'R("R_EX_fe2_e_")'
p1725
aS'R("R_GMAND")'
p1726
aS'R("R_CLPNH140pp")'
p1727
aS'R("R_GLYOX")'
p1728
aS'R("R_PPCDC")'
p1729
aS'R("R_TALA")'
p1730
aS'R("R_FADRx")'
p1731
aS'R("R_GLYK")'
p1732
aS'R("R_PGK_Rev")'
p1733
aS'R("R_THRt2rpp")'
p1734
aS'R("R_TPI_Rev")'
p1735
aS'R("R_UNK3")'
p1736
aS'R("R_3AMPtex")'
p1737
aS'R("R_LPLIPAL2ATE141")'
p1738
aS'R("R_EX_enter_e__Rev")'
p1739
aS'R("R_GHMT2r")'
p1740
aS'R("R_CLPNS181pp_Rev")'
p1741
aS'R("R_CHLtex_Rev")'
p1742
aS'R("R_14GLUCANabcpp")'
p1743
aS'R("R_CTBTt2rpp_Rev")'
p1744
aS'R("R_ILEtex_Rev")'
p1745
aS'R("R_FMNAT")'
p1746
aS'R("R_ACOAD5f_Rev")'
p1747
aS'R("R_GLCURtex")'
p1748
aS'R("R_EX_dgsn_e_")'
p1749
aS'R("R_DKMPPD")'
p1750
aS'R("R_EX_23cump_e_")'
p1751
aS'R("R_RNDR1")'
p1752
aS'R("R_FE3HOXUtpp")'
p1753
aS'R("R_LYXI")'
p1754
aS'R("R_EX_tyr_L_e_")'
p1755
aS'R("R_EX_3cmp_e_")'
p1756
aS'R("R_DHBD")'
p1757
aS'R("R_EX_acmana_e_")'
p1758
aS'R("R_EX_g3ps_e_")'
p1759
aS'R("R_GTHS")'
p1760
aS'R("R_PRMICI_Rev")'
p1761
aS'R("R_UMPtex")'
p1762
aS'R("R_EX_man_e_")'
p1763
aS'R("R_EX_pppn_e_")'
p1764
aS'R("R_HDCOAI")'
p1765
aS'R("R_GLYBt2pp")'
p1766
aS'R("R_GALCTtex")'
p1767
aS'R("R_METSOX1tex")'
p1768
aS'R("R_SDPTA_Rev")'
p1769
aS'R("R_L_LACD2")'
p1770
aS'R("R_3HAD160")'
p1771
aS'R("R_GALURt2rpp")'
p1772
aS'R("R_NH4tpp_Rev")'
p1773
aS'R("R_ACS")'
p1774
aS'R("R_PLIPA2E161pp")'
p1775
aS'R("R_ULA4Ntppi")'
p1776
aS'R("R_UDPGDC")'
p1777
aS'R("R_CA2t3pp")'
p1778
aS'R("R_HYD3pp")'
p1779
aS'R("R_PAPA180")'
p1780
aS'R("R_GLCTR1")'
p1781
aS'R("R_UDPGPpp")'
p1782
aS'R("R_PSCVT")'
p1783
aS'R("R_THRS")'
p1784
aS'R("R_PGI")'
p1785
aS'R("R_ACGAM1Ptex_Rev")'
p1786
aS'R("R_XANtex_Rev")'
p1787
aS'R("R_CU2tpp")'
p1788
aS'R("R_PPA")'
p1789
aS'R("R_DPR")'
p1790
aS'R("R_EX_hdca_e_")'
p1791
aS'R("R_EX_maltpt_e__Rev")'
p1792
aS'R("R_2AGPEAT120")'
p1793
aS'R("R_DCMPtex")'
p1794
aS'R("R_METSOX1abcpp")'
p1795
aS'R("R_GLUDy")'
p1796
aS'R("R_PLIPA2E181pp")'
p1797
aS'R("R_23CAMPtex_Rev")'
p1798
aS'R("R_GUI1_Rev")'
p1799
aS'R("R_FE2t2pp")'
p1800
aS'R("R_LPLIPAL1E161pp")'
p1801
aS'R("R_GF6PTA")'
p1802
aS'R("R_3HAD141")'
p1803
aS'R("R_NMNN")'
p1804
aS'R("R_ADOCBLabcpp")'
p1805
aS'R("R_MLDCP3App")'
p1806
aS'R("R_3AMPtex_Rev")'
p1807
aS'R("R_EX_so4_e_")'
p1808
aS'R("R_EX_glcur_e__Rev")'
p1809
aS'R("R_EX_gam6p_e_")'
p1810
aS'R("R_TAGURr_Rev")'
p1811
aS'R("R_DASYN141")'
p1812
aS'R("R_DGSNtex_Rev")'
p1813
aS'R("R_G5SADs")'
p1814
aS'R("R_GLYt2pp")'
p1815
aS'R("R_NMNtex_Rev")'
p1816
aS'R("R_FACOAE100")'
p1817
aS'R("R_EX_acolipa_e_")'
p1818
aS'R("R_ALLTN")'
p1819
aS'R("R_FUM_Rev")'
p1820
aS'R("R_CLtex")'
p1821
aS'R("R_HEPT3")'
p1822
aS'R("R_NDPK1")'
p1823
aS'R("R_ZNabcpp")'
p1824
aS'R("R_EX_3amp_e_")'
p1825
aS'R("R_ASPK_Rev")'
p1826
aS'R("R_PLIPA1G181pp")'
p1827
aS'R("R_UAGAAT")'
p1828
aS'R("R_EX_no3_e__Rev")'
p1829
aS'R("R_SO2tex")'
p1830
aS'R("R_ETHSO3tex_Rev")'
p1831
aS'R("R_TYRPtex")'
p1832
aS'R("R_EX_glcur1p_e_")'
p1833
aS'R("R_PGPP140pp")'
p1834
aS'R("R_LPLIPAL2ATG120")'
p1835
aS'R("R_ANPRT")'
p1836
aS'R("R_CFAS160E")'
p1837
aS'R("R_EX_val_L_e_")'
p1838
aS'R("R_GGPTRCO")'
p1839
aS'R("R_EX_adocbl_e__Rev")'
p1840
aS'R("R_SERtex_Rev")'
p1841
aS'R("R_ACGAL1Ptex")'
p1842
aS'R("R_12DGR120tipp")'
p1843
aS'R("R_FEENTERexs")'
p1844
aS'R("R_EX_minohp_e__Rev")'
p1845
aS'R("R_MANPGH")'
p1846
aS'R("R_EX_mnl_e__Rev")'
p1847
aS'R("R_ECOAH1")'
p1848
aS'R("R_EAR60x")'
p1849
aS'R("R_EX_xmp_e_")'
p1850
aS'R("R_NACtex")'
p1851
aS'R("R_ABUTtex")'
p1852
aS'R("R_EX_spmd_e_")'
p1853
aS'R("R_N2Otpp")'
p1854
aS'R("R_ACGAtex_Rev")'
p1855
aS'R("R_AKGtex")'
p1856
aS'R("R_NO2tex_Rev")'
p1857
aS'R("R_MELIBtex")'
p1858
aS'R("R_T2DECAI")'
p1859
aS'R("R_AGPAT181")'
p1860
aS'R("R_MOBDtex")'
p1861
aS'R("R_PPNCL2")'
p1862
aS'R("R_O16AT")'
p1863
aS'R("R_UDPGLCURtex")'
p1864
aS'R("R_ARGAGMt7pp_Rev")'
p1865
aS'R("R_DAMPtex_Rev")'
p1866
aS'R("R_PYRt2rpp")'
p1867
aS'R("R_EX_progly_e__Rev")'
p1868
aS'R("R_TAURtex")'
p1869
aS'R("R_PGM_Rev")'
p1870
aS'R("R_PPTtex")'
p1871
aS'R("R_SUCDi")'
p1872
aS'R("R_PAPSR2")'
p1873
aS'R("R_ALR4x")'
p1874
aS'R("R_MN2tpp")'
p1875
aS'R("R_FE3HOXR1")'
p1876
aS'R("R_PLIPA2E141pp")'
p1877
aS'R("R_N2Otex_Rev")'
p1878
aS'R("R_GLCURt2rpp")'
p1879
aS'R("R_USHD")'
p1880
aS'R("R_O2tpp_Rev")'
p1881
aS'R("R_PGPP120")'
p1882
aS'R("R_OMCDC")'
p1883
aS'R("R_MALTptspp")'
p1884
aS'R("R_EX_lipa_cold_e__Rev")'
p1885
aS'R("R_ASPt2pp")'
p1886
aS'R("R_AGMtex_Rev")'
p1887
aS'R("R_EX_ins_e__Rev")'
p1888
aS'R("R_DHDPRy")'
p1889
aS'R("R_AST")'
p1890
aS'R("R_GLCURtex_Rev")'
p1891
aS'R("R_PETNT181pp")'
p1892
aS'R("R_EX_ppal_e_")'
p1893
aS'R("R_GTPDPK")'
p1894
aS'R("R_PA141abcpp")'
p1895
aS'R("R_ACOAD6f_Rev")'
p1896
aS'R("R_EX_cys_L_e__Rev")'
p1897
aS'R("R_EX_uacgam_e_")'
p1898
aS'R("R_MLTGY1pp")'
p1899
aS'R("R_PRFGS")'
p1900
aS'R("R_DADK")'
p1901
aS'R("R_SHK3Dr_Rev")'
p1902
aS'R("R_ACHBS")'
p1903
aS'R("R_EAR160x")'
p1904
aS'R("R_EX_acgal_e__Rev")'
p1905
aS'R("R_ALATA_L")'
p1906
aS'R("R_FCLK")'
p1907
aS'R("R_NDPK5_Rev")'
p1908
aS'R("R_3OAR161")'
p1909
aS'R("R_DTMPtex")'
p1910
aS'R("R_3GMPtex")'
p1911
aS'R("R_DHNAOT4")'
p1912
aS'R("R_GMPR")'
p1913
aS'R("R_IPPMIa_Rev")'
p1914
aS'R("R_O2Stex")'
p1915
aS'R("R_FDMO")'
p1916
aS'R("R_HEX4")'
p1917
aS'R("R_TRPS3")'
p1918
aS'R("R_EX_ala_B_e_")'
p1919
aS'R("R_TARTRtex_Rev")'
p1920
aS'R("R_GAMptspp")'
p1921
aS'R("R_LYStex")'
p1922
aS'R("R_AOBUTDs")'
p1923
aS'R("R_MAN6Pt6_2pp")'
p1924
aS'R("R_EX_o16a4colipa_e__Rev")'
p1925
aS'R("R_EX_hom_L_e__Rev")'
p1926
aS'R("R_AGM4PH")'
p1927
aS'R("R_URAtex_Rev")'
p1928
aS'R("R_PAPSR")'
p1929
aS'R("R_EX_cyan_e__Rev")'
p1930
aS'R("R_MLTP1")'
p1931
aS'R("R_EX_g3pe_e__Rev")'
p1932
aS'R("R_FRUpts2pp")'
p1933
aS'R("R_23CGMPtex")'
p1934
aS'R("R_DMSOtex_Rev")'
p1935
aS'R("R_PUNP7")'
p1936
aS'R("R_EX_feoxam_un_e__Rev")'
p1937
aS'R("R_EX_psclys_e__Rev")'
p1938
aS'R("R_3OAS60")'
p1939
aS'R("R_EX_thrp_e_")'
p1940
aS'R("R_SUCOAS_Rev")'
p1941
aS'R("R_EX_xyl_D_e__Rev")'
p1942
aS'R("R_SUCRtex_Rev")'
p1943
aS'R("R_HOMtex")'
p1944
aS'R("R_G3PStex_Rev")'
p1945
aS'R("R_TALA_Rev")'
p1946
aS'R("R_PG160abcpp")'
p1947
aS'R("R_PE120abcpp")'
p1948
aS'R("R_EX_pi_e__Rev")'
p1949
aS'R("R_AACPS5")'
p1950
aS'R("R_FE2tex")'
p1951
aS'R("R_LPADSS")'
p1952
aS'R("R_NTRIR2x")'
p1953
aS'R("R_EX_glcn_e__Rev")'
p1954
aS'R("R_FEENTERR2")'
p1955
aS'R("R_CLPNH141pp")'
p1956
aS'R("R_G3PAT141")'
p1957
aS'R("R_UGLYCH")'
p1958
aS'R("R_EX_fum_e__Rev")'
p1959
aS'R("R_ALPATE160pp")'
p1960
aS'R("R_ME1")'
p1961
aS'R("R_EX_so2_e__Rev")'
p1962
aS'R("R_GK1")'
p1963
aS'R("R_LYSTRS")'
p1964
aS'R("R_MALt2_3pp")'
p1965
aS'R("R_MTRI")'
p1966
aS'R("R_LDH_D2")'
p1967
aS'R("R_SARCOX")'
p1968
aS'R("R_PRAMPC")'
p1969
aS'R("R_LPLIPAL1E181pp")'
p1970
aS'R("R_XYLtex_Rev")'
p1971
aS'R("R_LIPAabcpp")'
p1972
aS'R("R_EX_dad_2_e__Rev")'
p1973
aS'R("R_AKGt2rpp_Rev")'
p1974
aS'R("R_EX_ura_e_")'
p1975
aS'R("R_METOX2s")'
p1976
aS'R("R_DM_AACALD")'
p1977
aS'R("R_LYSt2pp")'
p1978
aS'R("R_EDTXS4")'
p1979
aS'R("R_ICHORS")'
p1980
aS'R("R_PIt2rpp")'
p1981
aS'R("R_LPLIPAL1A120pp")'
p1982
aS'R("R_DHAtex")'
p1983
aS'R("R_SUCFUMtpp_Rev")'
p1984
aS'R("R_PGCD")'
p1985
aS'R("R_DMSOR2")'
p1986
aS'R("R_EDTXS1")'
p1987
aS'R("R_GLYCDx")'
p1988
aS'R("R_EX_chol_e__Rev")'
p1989
aS'R("R_ECOAH8_Rev")'
p1990
aS'R("R_23CUMPtex_Rev")'
p1991
aS'R("R_CPGNR1")'
p1992
aS'R("R_GART")'
p1993
aS'R("R_MOBDabcpp")'
p1994
aS'R("R_CLtex_Rev")'
p1995
aS'R("R_RNTR2c")'
p1996
aS'R("R_PLIPA1G161pp")'
p1997
aS'R("R_PGSA160")'
p1998
aS'R("R_NADH5")'
p1999
aS'R("R_RPE_Rev")'
p2000
aS'R("R_A5PISO_Rev")'
p2001
aS'R("R_TSULtex")'
p2002
aS'R("R_3HPPPNH")'
p2003
aS'R("R_AMPTASEPG")'
p2004
aS'R("R_GPDDA3pp")'
p2005
aS'R("R_PPPNt2rpp")'
p2006
aS'R("R_23CCMPtex")'
p2007
aS'R("R_GLYCLTDx")'
p2008
aS'R("R_LPLIPAL2ATG180")'
p2009
aS'R("R_EX_zn2_e_")'
p2010
aS'R("R_EX_imp_e__Rev")'
p2011
aS'R("R_FCLPA_Rev")'
p2012
aS'R("R_FACOAL140t2pp")'
p2013
aS'R("R_LIPAHTex")'
p2014
aS'R("R_UGLT_Rev")'
p2015
aS'R("R_NNDPR")'
p2016
aS'R("R_EDTXS3")'
p2017
aS'R("R_NTPP11")'
p2018
aS'R("R_ALLPI_Rev")'
p2019
aS'R("R_AIRC2")'
p2020
aS'R("R_BUTSO3tex")'
p2021
aS'R("R_PGSA140")'
p2022
aS'R("R_EX_5dglcn_e_")'
p2023
aS'R("R_MNt2pp")'
p2024
aS'R("R_PGP120abcpp")'
p2025
aS'R("R_CLPNH120pp")'
p2026
aS'R("R_F6Ptex")'
p2027
aS'R("R_NTD9pp")'
p2028
aS'R("R_MOAT3C")'
p2029
aS'R("R_GLCTR2")'
p2030
aS'R("R_EX_cpgn_e__Rev")'
p2031
aS'R("R_EX_ump_e__Rev")'
p2032
aS'R("R_GLGC")'
p2033
aS'R("R_THMDt2pp")'
p2034
aS'R("R_FRUtex_Rev")'
p2035
aS'R("R_ASAD")'
p2036
aS'R("R_LCTStpp_Rev")'
p2037
aS'R("R_PHEtex_Rev")'
p2038
aS'R("R_LPLIPAL2ATG141")'
p2039
aS'R("R_IDOND_Rev")'
p2040
aS'R("R_EX_spmd_e__Rev")'
p2041
aS'R("R_EX_dcmp_e_")'
p2042
aS'R("R_EX_xylu_L_e__Rev")'
p2043
aS'R("R_ALLPI")'
p2044
aS'R("R_EX_adocbl_e_")'
p2045
aS'R("R_GTPCII2")'
p2046
aS'R("R_OMMBLHX")'
p2047
aS'R("R_NADK")'
p2048
aS'R("R_UDPKAAT")'
p2049
aS'R("R_CRNDt2rpp_Rev")'
p2050
aS'R("R_ALATA_L2")'
p2051
aS'R("R_EX_galctn_D_e__Rev")'
p2052
aS'R("R_EAR141x")'
p2053
aS'R("R_CU2tex")'
p2054
aS'R("R_GLUTRS")'
p2055
aS'R("R_GLCabcpp")'
p2056
aS'R("R_NO3R1bpp")'
p2057
aS'R("R_ACNML")'
p2058
aS'R("R_PG161abcpp")'
p2059
aS'R("R_GTHOXtex")'
p2060
aS'R("R_ZN2abcpp")'
p2061
aS'R("R_PGPP141pp")'
p2062
aS'R("R_ALR2")'
p2063
aS'R("R_DHFS")'
p2064
aS'R("R_MI1PP")'
p2065
aS'R("R_METSOXR2")'
p2066
aS'R("R_MSO3tex")'
p2067
aS'R("R_MLTP2_Rev")'
p2068
aS'R("R_FE3DCITabcpp")'
p2069
aS'R("R_MLTG5")'
p2070
aS'R("R_CD2abcpp")'
p2071
aS'R("R_EX_fe3hox_un_e__Rev")'
p2072
aS'R("R_GLYCTO2")'
p2073
aS'R("R_COBALT2tex")'
p2074
aS'R("R_PROtex_Rev")'
p2075
aS'R("R_FACOAE181")'
p2076
aS'R("R_MANAO_Rev")'
p2077
aS'R("R_EAR120y")'
p2078
aS'R("R_MLDCP2Bpp")'
p2079
aS'R("R_GLTPD")'
p2080
aS'R("R_EX_thymd_e_")'
p2081
aS'R("R_H2Otex_Rev")'
p2082
aS'R("R_EX_ttdca_e__Rev")'
p2083
aS'R("R_H2tpp")'
p2084
aS'R("R_CYTK2")'
p2085
aS'R("R_KARA1_Rev")'
p2086
aS'R("R_GAL1Ptex_Rev")'
p2087
aS'R("R_UAGPT3")'
p2088
aS'R("R_MG2t3_2pp_Rev")'
p2089
aS'R("R_ACMAMUT")'
p2090
aS'R("R_NADS1")'
p2091
aS'R("R_FECRMR3")'
p2092
aS'R("R_PIt2rpp_Rev")'
p2093
aS'R("R_TRPtex_Rev")'
p2094
aS'R("R_FDMO6")'
p2095
aS'R("R_EX_halipa_e_")'
p2096
aS'R("R_EX_sbt_D_e__Rev")'
p2097
aS'R("R_ILETA")'
p2098
aS'R("R_DOPAtex")'
p2099
aS'R("R_DASYN161")'
p2100
aS'R("R_XYLI1")'
p2101
aS'R("R_THMabcpp")'
p2102
aS'R("R_AGPAT141")'
p2103
aS'R("R_CU1abcpp")'
p2104
aS'R("R_DTMPK_Rev")'
p2105
aS'R("R_FEROpp")'
p2106
aS'R("R_IMPC_Rev")'
p2107
aS'R("R_CA2tex")'
p2108
aS'R("R_G3PCabcpp")'
p2109
aS'R("R_EX_ni2_e__Rev")'
p2110
aS'R("R_ACGALtex")'
p2111
aS'R("R_ECOAH6")'
p2112
aS'R("R_UACGALPpp")'
p2113
aS'R("R_DAMPtex")'
p2114
aS'R("R_TSULtex_Rev")'
p2115
aS'R("R_NO3tex")'
p2116
aS'R("R_EX_hg2_e_")'
p2117
aS'R("R_DPCOAK")'
p2118
aS'R("R_INSTtex")'
p2119
aS'R("R_GGPTRCS")'
p2120
aS'R("R_2AGPG181tipp")'
p2121
aS'R("R_GUI2")'
p2122
aS'R("R_AGM4PA")'
p2123
aS'R("R_PFK_2")'
p2124
aS'R("R_DHPS2")'
p2125
aS'R("R_MALTATr_Rev")'
p2126
aS'R("R_PLIPA1A140pp")'
p2127
aS'R("R_POX")'
p2128
aS'R("R_MME_Rev")'
p2129
aS'R("R_CMPtex")'
p2130
aS'R("R_NDPK8_Rev")'
p2131
aS'R("R_NACtex_Rev")'
p2132
aS'R("R_HCINNMt2rpp")'
p2133
aS'R("R_NI2uabcpp")'
p2134
aS'R("R_GDPDPK")'
p2135
aS'R("R_MNLtex_Rev")'
p2136
aS'R("R_PMANM_Rev")'
p2137
aS'R("R_2MAHMP")'
p2138
aS'R("R_3OAR120")'
p2139
aS'R("R_LPLIPAL1G141pp")'
p2140
aS'R("R_HCO3E")'
p2141
aS'R("R_GUAtex")'
p2142
aS'R("R_CINNDO")'
p2143
aS'R("R_ARGSL")'
p2144
aS'R("R_VALTA_Rev")'
p2145
aS'R("R_HXAtex_Rev")'
p2146
aS'R("R_EX_nmn_e_")'
p2147
aS'R("R_IG3PS")'
p2148
aS'R("R_URDGLYCD")'
p2149
aS'R("R_PSD161")'
p2150
aS'R("R_FUM")'
p2151
aS'R("R_ADSL2r_Rev")'
p2152
aS'R("R_G3PD5")'
p2153
aS'R("R_GSPMDA")'
p2154
aS'R("R_ALDD3y")'
p2155
aS'R("R_NTD5")'
p2156
aS'R("R_UAGCVT")'
p2157
aS'R("R_UDPGALM")'
p2158
aS'R("R_GLCP")'
p2159
aS'R("R_GPDDA5pp")'
p2160
aS'R("R_T2DECAI_Rev")'
p2161
aS'R("R_URIt2rpp")'
p2162
aS'R("R_EX_frulys_e__Rev")'
p2163
aS'R("R_SFGTHi")'
p2164
aS'R("R_NO3t7pp")'
p2165
aS'R("R_EX_23ccmp_e_")'
p2166
aS'R("R_MMM2")'
p2167
aS'R("R_L_LACt2rpp_Rev")'
p2168
aS'R("R_ECAtpp")'
p2169
aS'R("R_FACOAL141t2pp")'
p2170
aS'R("R_LYSabcpp")'
p2171
aS'R("R_DCYTtex_Rev")'
p2172
aS'R("R_CHLabcpp")'
p2173
aS'R("R_O2Stex_Rev")'
p2174
aS'R("R_OCTAtex_Rev")'
p2175
aS'R("R_GDPtex_Rev")'
p2176
aS'R("R_FE3abcpp")'
p2177
aS'R("R_IGPDH")'
p2178
aS'R("R_H2Stex_Rev")'
p2179
aS'R("R_PRPPS")'
p2180
aS'R("R_EX_ag_e__Rev")'
p2181
aS'R("R_ENTERES2")'
p2182
aS'R("R_O2tex")'
p2183
aS'R("R_EX_ocdcea_e__Rev")'
p2184
aS'R("R_EX_tre_e__Rev")'
p2185
aS'R("R_NADPHQR2")'
p2186
aS'R("R_EX_enter_e_")'
p2187
aS'R("R_FEENTERR1")'
p2188
aS'R("R_ARBTNtpp")'
p2189
aS'R("R_GLNS")'
p2190
aS'R("R_EX_fuc_L_e__Rev")'
p2191
aS'R("R_H2tex_Rev")'
p2192
aS'R("R_GUAtpp")'
p2193
aS'R("R_AMANK")'
p2194
aS'R("R_EX_dtmp_e_")'
p2195
aS'R("R_FRUURtex_Rev")'
p2196
aS'R("R_ANS")'
p2197
aS'R("R_UACGAMtex")'
p2198
aS'R("R_3UMPtex_Rev")'
p2199
aS'R("R_CU2abcpp")'
p2200
aS'R("R_ADOCBLS")'
p2201
aS'R("R_SERD_D")'
p2202
aS'R("R_ACCOAL")'
p2203
aS'R("R_IPPMIb_Rev")'
p2204
aS'R("R_EX_n2o_e_")'
p2205
aS'R("R_AACPS6")'
p2206
aS'R("R_AMALT2")'
p2207
aS'R("R_EX_n2o_e__Rev")'
p2208
aS'R("R_N2Otpp_Rev")'
p2209
aS'R("R_GALt2pp")'
p2210
aS'R("R_LEUtex")'
p2211
aS'R("R_ACSERtex")'
p2212
aS'R("R_EX_5dglcn_e__Rev")'
p2213
aS'R("R_INSt2rpp")'
p2214
aS'R("R_THMDtex_Rev")'
p2215
aS'R("R_GLYOX3")'
p2216
aS'R("R_MANtex_Rev")'
p2217
aS'R("R_FCI")'
p2218
aS'R("R_ALAR")'
p2219
aS'R("R_DAGK161")'
p2220
aS'R("R_AM3PA")'
p2221
aS'R("R_EX_thm_e_")'
p2222
aS'R("R_UREAtex_Rev")'
p2223
aS'R("R_LSERDHr_Rev")'
p2224
aS'R("R_MALTTRabcpp")'
p2225
aS'R("R_ECAP1pp")'
p2226
aS'R("R_EX_glc_e_")'
p2227
aS'R("R_UAGDP")'
p2228
aS'R("R_EX_arbtn_fe3_e_")'
p2229
aS'R("R_PItex")'
p2230
aS'R("R_NOtpp_Rev")'
p2231
aS'R("R_SHCHCS2")'
p2232
aS'R("R_NTP3")'
p2233
aS'R("R_EX_g1p_e__Rev")'
p2234
aS'R("R_SULabcpp")'
p2235
aS'R("R_SUCCtex")'
p2236
aS'R("R_G3PAT161")'
p2237
aS'R("R_GALM2pp")'
p2238
aS'R("R_MNtex")'
p2239
aS'R("R_MLTP1_Rev")'
p2240
aS'R("R_CHLtex")'
p2241
aS'R("R_DDGALK")'
p2242
aS'R("R_UDPACGALtex")'
p2243
aS'R("R_AGPR_Rev")'
p2244
aS'R("R_ARGORNt7pp")'
p2245
aS'R("R_ASNtex_Rev")'
p2246
aS'R("R_EX_cd2_e__Rev")'
p2247
aS'R("R_EX_cmp_e_")'
p2248
aS'R("R_PLIPA2G161pp")'
p2249
aS'R("R_AKGt2rpp")'
p2250
aS'R("R_D_LACt2pp")'
p2251
aS'R("R_EX_gam6p_e__Rev")'
p2252
aS'R("R_FA80ACPHi")'
p2253
aS'R("R_UREAtpp_Rev")'
p2254
aS'R("R_CU1Opp")'
p2255
aS'R("R_MCTP1App")'
p2256
aS'R("R_CYTDtex")'
p2257
aS'R("R_ACGAL1PPpp")'
p2258
aS'R("R_SULRi")'
p2259
aS'R("R_EX_peamn_e_")'
p2260
aS'R("R_ETHAt2pp")'
p2261
aS'R("R_HETZK")'
p2262
aS'R("R_EX_4abut_e__Rev")'
p2263
aS'R("R_4PEPTabcpp")'
p2264
aS'R("R_2AGPG141tipp")'
p2265
aS'R("R_L_LACtex_Rev")'
p2266
aS'R("R_VALt2rpp_Rev")'
p2267
aS'R("R_EX_udpgal_e__Rev")'
p2268
aS'R("R_FE3HOXR3")'
p2269
aS'R("R_GALCTt2rpp")'
p2270
aS'R("R_CFAS180G")'
p2271
aS'R("R_EX_dad_2_e_")'
p2272
aS'R("R_EX_butso3_e__Rev")'
p2273
aS'R("R_MLTG3")'
p2274
aS'R("R_PNTOt4pp")'
p2275
aS'R("R_UDCPDPpp")'
p2276
aS'R("R_RNTR3c")'
p2277
aS'R("R_ACOAD6f")'
p2278
aS'R("R_GLXCL")'
p2279
aS'R("R_LCARR")'
p2280
aS'R("R_DSERt2pp")'
p2281
aS'R("R_EX_glcr_e__Rev")'
p2282
aS'R("R_PNTOtex")'
p2283
aS'R("R_GLYCTO3")'
p2284
aS'R("R_EX_pyr_e_")'
p2285
aS'R("R_3OAR140")'
p2286
aS'R("R_EX_dms_e_")'
p2287
aS'R("R_PPTtex_Rev")'
p2288
aS'R("R_EAR80x")'
p2289
aS'R("R_FUMt2_3pp")'
p2290
aS'R("R_GLCRD")'
p2291
aS'R("R_EX_dha_e__Rev")'
p2292
aS'R("R_SUCCt2_3pp")'
p2293
aS'R("R_DHFR")'
p2294
aS'R("R_EX_galct_D_e_")'
p2295
aS'R("R_ENTERES")'
p2296
aS'R("R_NI2tpp")'
p2297
aS'R("R_ARBTNR1")'
p2298
aS'R("R_ADK1_Rev")'
p2299
aS'R("R_LPLIPAL2ATG161")'
p2300
aS'R("R_23PDE2pp")'
p2301
aS'R("R_FA120ACPHi")'
p2302
aS'R("R_ASPO3")'
p2303
aS'R("R_TREptspp")'
p2304
aS'R("R_FRUURtex")'
p2305
aS'R("R_LPLIPAL1G120pp")'
p2306
aS'R("R_EX_fe3dcit_e__Rev")'
p2307
aS'R("R_EX_ura_e__Rev")'
p2308
aS'R("R_EX_glyald_e__Rev")'
p2309
aS'R("R_EX_gam_e_")'
p2310
aS'R("R_AMPtex")'
p2311
aS'R("R_DHBS")'
p2312
aS'R("R_EX_amp_e__Rev")'
p2313
aS'R("R_EX_cpgn_un_e__Rev")'
p2314
aS'R("R_EX_ser_D_e__Rev")'
p2315
aS'R("R_EX_ethso3_e__Rev")'
p2316
aS'R("R_3PEPTtex")'
p2317
aS'R("R_GLCNtex_Rev")'
p2318
aS'R("R_ASCBptspp")'
p2319
aS'R("R_EX_cl_e_")'
p2320
aS'R("R_LPLIPAL2E180")'
p2321
aS'R("R_MANAO")'
p2322
aS'R("R_GALCTt2rpp_Rev")'
p2323
aS'R("R_GLYCLTtex_Rev")'
p2324
aS'R("R_EX_acac_e_")'
p2325
aS'R("R_EX_gdp_e_")'
p2326
aS'R("R_FACOAL180t2pp")'
p2327
aS'R("R_EAR141y")'
p2328
aS'R("R_EX_glcn_e_")'
p2329
aS'R("R_ACACt2pp")'
p2330
aS'R("R_EX_acmum_e_")'
p2331
aS'R("R_SPMDAT2")'
p2332
aS'R("R_ANHGMtex_Rev")'
p2333
aS'R("R_23PDE9pp")'
p2334
aS'R("R_NHFRBO")'
p2335
aS'R("R_CRNtex")'
p2336
aS'R("R_FBA")'
p2337
aS'R("R_NMNt7pp")'
p2338
aS'R("R_PLIPA1E161pp")'
p2339
aS'R("R_CO2tex_Rev")'
p2340
aS'R("R_ADOCBLtonex")'
p2341
aS'R("R_GLCtex")'
p2342
aS'R("R_EX_gsn_e_")'
p2343
aS'R("R_FECRMUtex")'
p2344
aS'R("R_ENTCS")'
p2345
aS'R("R_MTHFC_Rev")'
p2346
aS'R("R_EX_co2_e_")'
p2347
aS'R("R_XYLI2")'
p2348
aS'R("R_GSNtex")'
p2349
aS'R("R_EX_ins_e_")'
p2350
aS'R("R_PG181abcpp")'
p2351
aS'R("R_MTRK")'
p2352
aS'R("R_ASP1DC")'
p2353
aS'R("R_EX_gua_e_")'
p2354
aS'R("R_ILEt2rpp_Rev")'
p2355
aS'R("R_EX_phe_L_e_")'
p2356
aS'R("R_TARTD")'
p2357
aS'R("R_GLYAT_Rev")'
p2358
aS'R("R_NTP12")'
p2359
aS'R("R_PYNP2r_Rev")'
p2360
aS'R("R_ALAtex")'
p2361
aS'R("R_EX_dimp_e_")'
p2362
aS'R("R_AICART")'
p2363
aS'R("R_ACNAMtex_Rev")'
p2364
aS'R("R_GUAt2pp")'
p2365
aS'R("R_TMDK1")'
p2366
aS'R("R_PUNP5")'
p2367
aS'R("R_SSALy")'
p2368
aS'R("R_ASNS2")'
p2369
aS'R("R_2AGPGAT120")'
p2370
aS'R("R_CPGNexs")'
p2371
aS'R("R_DM_5DRIB")'
p2372
aS'R("R_PPM2_Rev")'
p2373
aS'R("R_GALCTNLt2pp")'
p2374
aS'R("R_LPLIPAL1E180pp")'
p2375
aS'R("R_EX_ascb_L_e_")'
p2376
aS'R("R_PGSA120")'
p2377
aS'R("R_G3PD2")'
p2378
aS'R("R_NTD6")'
p2379
aS'R("R_Htex")'
p2380
aS'R("R_MDH_Rev")'
p2381
aS'R("R_EX_gly_e__Rev")'
p2382
aS'R("R_NTP11")'
p2383
aS'R("R_ARGtex")'
p2384
aS'R("R_3OAR140_Rev")'
p2385
aS'R("R_GLYCLTt2rpp")'
p2386
aS'R("R_G1PACT")'
p2387
aS'R("R_EX_his_L_e_")'
p2388
aS'R("R_3OAS180")'
p2389
aS'R("R_DDGLCNtex_Rev")'
p2390
aS'R("R_LPLIPAL2A181")'
p2391
aS'R("R_CYTDt2rpp_Rev")'
p2392
aS'R("R_EX_26dap_M_e__Rev")'
p2393
aS'R("R_PGAMT_Rev")'
p2394
aS'R("R_FACOAL60t2pp")'
p2395
aS'R("R_EX_crn_e_")'
p2396
aS'R("R_PPPNt2rpp_Rev")'
p2397
aS'R("R_DALAtex")'
p2398
aS'R("R_GAMtex")'
p2399
aS'R("R_EX_ser_L_e_")'
p2400
aS'R("R_CRNDabcpp")'
p2401
aS'R("R_ALLTNt2rpp_Rev")'
p2402
aS'R("R_GLYAT")'
p2403
aS'R("R_2AGPE140tipp")'
p2404
aS'R("R_FDMO3")'
p2405
aS'R("R_12DGR160tipp")'
p2406
aS'R("R_HACD8i")'
p2407
aS'R("R_MANGLYCtex_Rev")'
p2408
aS'R("R_PERD")'
p2409
aS'R("R_ECOAH6_Rev")'
p2410
aS'R("R_PAPA181")'
p2411
aS'R("R_EX_cu2_e_")'
p2412
aS'R("R_ASCBtex")'
p2413
aS'R("R_ACALDtex")'
p2414
aS'R("R_CLPNS140pp")'
p2415
aS'R("R_PROGLYtex")'
p2416
aS'R("R_GAMtex_Rev")'
p2417
aS'R("R_NTPP1")'
p2418
aS'R("R_LPLIPAL2G161")'
p2419
aS'R("R_EX_his_L_e__Rev")'
p2420
aS'R("R_GARFT")'
p2421
aS'R("R_3HAD80")'
p2422
aS'R("R_IPDPS")'
p2423
aS'R("R_PUNP2")'
p2424
aS'R("R_ACOAD3f")'
p2425
aS'R("R_GLYC2Ptex")'
p2426
aS'R("R_GLYC2Ptex_Rev")'
p2427
aS'R("R_RIBtex")'
p2428
aS'R("R_EX_butso3_e_")'
p2429
aS'R("R_CDAPPA161")'
p2430
aS'R("R_ACLS")'
p2431
aS'R("R_GTHRDabcpp")'
p2432
aS'R("R_MCITD")'
p2433
aS'R("R_PAPA161")'
p2434
aS'R("R_NTD3pp")'
p2435
aS'R("R_AMPMS2")'
p2436
aS'R("R_PAPA140pp")'
p2437
aS'R("R_RMI")'
p2438
aS'R("R_KAT3")'
p2439
aS'R("R_CTBTabcpp")'
p2440
aS'R("R_ORPT_Rev")'
p2441
aS'R("R_SHCHF")'
p2442
aS'R("R_3OAR100_Rev")'
p2443
aS'R("R_EX_hxan_e__Rev")'
p2444
aS'R("R_EX_fum_e_")'
p2445
aS'R("R_ADD")'
p2446
aS'R("R_MALTHXtexi")'
p2447
aS'R("R_PMANM")'
p2448
aS'R("R_PAPA160pp")'
p2449
aS'R("R_NADH18pp")'
p2450
aS'R("R_PSERT")'
p2451
aS'R("R_DSBCGT")'
p2452
aS'R("R_DM_OXAM")'
p2453
aS'R("R_METSOXR1")'
p2454
aS'R("R_EX_tre_e_")'
p2455
aS'R("R_D_LACt2pp_Rev")'
p2456
aS'R("R_AMALT1")'
p2457
aS'R("R_3OAR181")'
p2458
aS'R("R_EX_ade_e_")'
p2459
aS'R("R_EX_fecrm_e__Rev")'
p2460
aS'R("R_TRPAS2_Rev")'
p2461
aS'R("R_URItex")'
p2462
aS'R("R_DGMPtex_Rev")'
p2463
aS'R("R_EX_tyr_L_e__Rev")'
p2464
aS'R("R_DDCAtexi")'
p2465
aS'R("R_EX_glyclt_e_")'
p2466
aS'R("R_CYSTL")'
p2467
aS'R("R_EX_4hoxpacd_e__Rev")'
p2468
aS'R("R_AMAOTr_Rev")'
p2469
aS'R("R_ADK1")'
p2470
aS'R("R_QULNS")'
p2471
aS'R("R_ALPATG160pp")'
p2472
aS'R("R_CLPNH160pp")'
p2473
aS'R("R_HEPK2")'
p2474
aS'R("R_PLIPA1A181pp")'
p2475
aS'R("R_PEAMNtex")'
p2476
aS'R("R_PROGLYabcpp")'
p2477
aS'R("R_XANtpp_Rev")'
p2478
aS'R("R_EAR160y")'
p2479
aS'R("R_CRNtex_Rev")'
p2480
aS'R("R_ADNtex")'
p2481
aS'R("R_2AGPG120tipp")'
p2482
aS'R("R_CSND")'
p2483
aS'R("R_G3PItex_Rev")'
p2484
aS'R("R_PSP_Lpp")'
p2485
aS'R("R_PDX5POi")'
p2486
aS'R("R_BUTCT")'
p2487
aS'R("R_HG2tex")'
p2488
aS'R("R_PNTK")'
p2489
aS'R("R_GLUCYS")'
p2490
aS'R("R_GMHEPPA")'
p2491
aS'R("R_SERASr_Rev")'
p2492
aS'R("R_EX_tma_e__Rev")'
p2493
aS'R("R_EX_23camp_e_")'
p2494
aS'R("R_ATPS4rpp")'
p2495
aS'R("R_DMSOR1")'
p2496
aS'R("R_LEUabcpp")'
p2497
aS'R("R_ACALD_Rev")'
p2498
aS'R("R_DASYN140")'
p2499
aS'R("R_EX_ca2_e_")'
p2500
aS'R("R_PSSA140")'
p2501
aS'R("R_NTPP8")'
p2502
aS'R("R_GHMT2r_Rev")'
p2503
aS'R("R_ARBTNexs")'
p2504
aS'R("R_FALGTHLs")'
p2505
aS'R("R_RMPA_Rev")'
p2506
aS'R("R_GAM6Pt6_2pp")'
p2507
aS'R("R_SO2tpp_Rev")'
p2508
aS'R("R_DHPPD")'
p2509
aS'R("R_PPPGO3")'
p2510
aS'R("R_F6Ptex_Rev")'
p2511
aS'R("R_PLIPA1G160pp")'
p2512
aS'R("R_ADNt2pp")'
p2513
aS'R("R_LPLIPAL1A181pp")'
p2514
aS'R("R_NTD4pp")'
p2515
aS'R("R_TPRDCOAS")'
p2516
aS'R("R_CYTDt2pp")'
p2517
aS'R("R_EX_dgmp_e_")'
p2518
aS'R("R_DKMPPD3")'
p2519
aS'R("R_ACGAM1Ptex")'
p2520
aS'R("R_PLIPA1E181pp")'
p2521
aS'R("R_GLUt4pp")'
p2522
aS'R("R_ARGORNt7pp_Rev")'
p2523
aS'R("R_UDPACGALtex_Rev")'
p2524
aS'R("R_ADK4_Rev")'
p2525
aS'R("R_3HAD181")'
p2526
aS'R("R_ACONTb_Rev")'
p2527
aS'R("R_CLPNS180pp_Rev")'
p2528
aS'R("R_DSBAO1")'
p2529
aS'R("R_URAt2rpp_Rev")'
p2530
aS'R("R_PLIPA1A120pp")'
p2531
aS'R("R_F6PA_Rev")'
p2532
aS'R("R_ORNtex_Rev")'
p2533
aS'R("R_EX_15dap_e__Rev")'
p2534
aS'R("R_XTSNt2rpp_Rev")'
p2535
aS'R("R_SDPDS")'
p2536
aS'R("R_PLIPA1E180pp")'
p2537
aS'R("R_GALCTD")'
p2538
aS'R("R_DM_4HBA")'
p2539
aS'R("R_ACGAptspp")'
p2540
aS'R("R_AGMHE")'
p2541
aS'R("R_HPPPNt2rpp")'
p2542
aS'R("R_ALAR_Rev")'
p2543
aS'R("R_OMBZLM")'
p2544
aS'R("R_THD2pp")'
p2545
aS'R("R_G3PCtex")'
p2546
aS'R("R_DCAtex")'
p2547
aS'R("R_MGSA")'
p2548
aS'R("R_MLDCP2App")'
p2549
aS'R("R_SO2tpp")'
p2550
aS'R("R_TPI")'
p2551
aS'R("R_OP4ENH")'
p2552
aS'R("R_GLUabcpp")'
p2553
aS'R("R_TRPS1")'
p2554
aS'R("R_EX_cu_e__Rev")'
p2555
aS'R("R_GLYCAt2rpp")'
p2556
aS'R("R_TUNGStex_Rev")'
p2557
aS'R("R_FALDH2")'
p2558
aS'R("R_GALKr")'
p2559
aS'R("R_EX_lcts_e__Rev")'
p2560
aS'R("R_EX_trp_L_e_")'
p2561
aS'R("R_AMANAPEr_Rev")'
p2562
aS'R("R_PGPP160")'
p2563
aS'R("R_CYTBDpp")'
p2564
aS'R("R_EX_pacald_e__Rev")'
p2565
aS'R("R_PANTS")'
p2566
aS'R("R_AMPtex_Rev")'
p2567
aS'R("R_ABTA")'
p2568
aS'R("R_2AGPG180tipp")'
p2569
aS'R("R_2AGPE141tipp")'
p2570
aS'R("R_PE161abcpp")'
p2571
aS'R("R_EX_23camp_e__Rev")'
p2572
aS'R("R_ACGK")'
p2573
aS'R("R_NTD5pp")'
p2574
aS'R("R_EX_o2s_e_")'
p2575
aS'R("R_2AGPA181tipp")'
p2576
aS'R("R_EX_LalaDgluMdapDala_e__Rev")'
p2577
aS'R("R_CLPNS160pp")'
p2578
aS'R("R_NO2t2rpp_Rev")'
p2579
aS'R("R_2AGPE180tipp")'
p2580
aS'R("R_NTD3")'
p2581
aS'R("R_PTRCORNt7pp_Rev")'
p2582
aS'R("R_MOBDtex_Rev")'
p2583
aS'R("R_OROTtex")'
p2584
aS'R("R_SPMDAT1")'
p2585
aS'R("R_MN6PP")'
p2586
aS'R("R_TRE6PP")'
p2587
aS'R("R_DHORD2")'
p2588
aS'R("R_3HAD60")'
p2589
aS'R("R_NOtex")'
p2590
aS'R("R_EX_thr_L_e_")'
p2591
aS'R("R_PEAMNOpp")'
p2592
aS'R("R_BSORx")'
p2593
aS'R("R_ADNt2rpp_Rev")'
p2594
aS'R("R_2AGPEAT160")'
p2595
aS'R("R_EX_12ppd_R_e__Rev")'
p2596
aS'R("R_O16AP2pp")'
p2597
aS'R("R_EX_xtsn_e__Rev")'
p2598
aS'R("R_AMALT4")'
p2599
aS'R("R_G6Ptex_Rev")'
p2600
aS'R("R_GMPtex_Rev")'
p2601
aS'R("R_RBP4E")'
p2602
aS'R("R_PPAKr")'
p2603
aS'R("R_UDPG4E")'
p2604
aS'R("R_NDPK7_Rev")'
p2605
aS'R("R_RMPA")'
p2606
aS'R("R_DATPHs")'
p2607
aS'R("R_EX_4abut_e_")'
p2608
aS'R("R_23PDE7pp")'
p2609
aS'R("R_EX_indole_e_")'
p2610
aS'R("R_EX_minohp_e_")'
p2611
aS'R("R_UDPGALtex")'
p2612
aS'R("R_4HOXPACDtex")'
p2613
aS'R("R_CRNCAR")'
p2614
aS'R("R_DURItex_Rev")'
p2615
aS'R("R_UDPGtex_Rev")'
p2616
aS'R("R_ACOATA_Rev")'
p2617
aS'R("R_TYRtex_Rev")'
p2618
aS'R("R_HBZOPT")'
p2619
aS'R("R_EX_etha_e__Rev")'
p2620
aS'R("R_G3PAT140")'
p2621
aS'R("R_2AGPG160tipp")'
p2622
aS'R("R_XYLtex")'
p2623
aS'R("R_EX_gua_e__Rev")'
p2624
aS'R("R_NI2t3pp")'
p2625
aS'R("R_ECOAH4_Rev")'
p2626
aS'R("R_PPALtpp")'
p2627
aS'R("R_AACPS1")'
p2628
aS'R("R_PROTRS")'
p2629
aS'R("R_FLDR")'
p2630
aS'R("R_PDXPP")'
p2631
aS'R("R_EX_fald_e_")'
p2632
aS'R("R_CPGNabcpp")'
p2633
aS'R("R_3OAS140")'
p2634
aS'R("R_GP4GH")'
p2635
aS'R("R_HOMtex_Rev")'
p2636
aS'R("R_KARA2_Rev")'
p2637
aS'R("R_COBALT2abcpp")'
p2638
aS'R("R_TDECOAI")'
p2639
aS'R("R_EX_ala_L_e__Rev")'
p2640
aS'R("R_O2tpp")'
p2641
aS'R("R_OXGDC2")'
p2642
aS'R("R_EX_glc_e__Rev")'
p2643
aS'R("R_CTBTt2rpp")'
p2644
aS'R("R_HPPK2")'
p2645
aS'R("R_MLDEP2pp")'
p2646
aS'R("R_PROabcpp")'
p2647
aS'R("R_EX_tma_e_")'
p2648
aS'R("R_EX_hdca_e__Rev")'
p2649
aS'R("R_HSTPT")'
p2650
aS'R("R_EX_acser_e_")'
p2651
aS'R("R_2AGPEAT140")'
p2652
aS'R("R_MTHFD_Rev")'
p2653
aS'R("R_FEOXAMexs")'
p2654
aS'R("R_VALt2rpp")'
p2655
aS'R("R_MALtex")'
p2656
aS'R("R_SBTtex")'
p2657
aS'R("R_EX_mso3_e_")'
p2658
aS'R("R_EX_lac_D_e__Rev")'
p2659
aS'R("R_ETHAtex")'
p2660
aS'R("R_GUR1PPpp")'
p2661
aS'R("R_EX_met_L_e_")'
p2662
aS'R("R_2AGPGAT161")'
p2663
aS'R("R_BTS4")'
p2664
aS'R("R_EX_man_e__Rev")'
p2665
aS'R("R_HPPPNt2rpp_Rev")'
p2666
aS'R("R_KARA1")'
p2667
aS'R("R_3HAD40")'
p2668
aS'R("R_GLYALDtpp_Rev")'
p2669
aS'R("R_ILEt2rpp")'
p2670
aS'R("R_PGPP161pp")'
p2671
aS'R("R_LPLIPAL2A161")'
p2672
aS'R("R_SERASr")'
p2673
aS'R("R_CITtex")'
p2674
aS'R("R_HEXt2rpp_Rev")'
p2675
aS'R("R_MTRPOX")'
p2676
aS'R("R_TARTRtex")'
p2677
aS'R("R_AGPAT160")'
p2678
aS'R("R_ECAP2pp")'
p2679
aS'R("R_GK1_Rev")'
p2680
aS'R("R_VALTA")'
p2681
aS'R("R_EX_acmana_e__Rev")'
p2682
aS'R("R_RBP4E_Rev")'
p2683
aS'R("R_O2tex_Rev")'
p2684
aS'R("R_EX_melib_e_")'
p2685
aS'R("R_GLCptspp")'
p2686
aS'R("R_UDCPDPS")'
p2687
aS'R("R_EX_lac_L_e_")'
p2688
aS'R("R_AAMYL")'
p2689
aS'R("R_EX_pro_L_e_")'
p2690
aS'R("R_ACOAD7f")'
p2691
aS'R("R_ARGSL_Rev")'
p2692
aS'R("R_PACALDt2rpp")'
p2693
aS'R("R_EX_LalaDgluMdap_e__Rev")'
p2694
aS'R("R_4PCP")'
p2695
aS'R("R_PPALtex")'
p2696
aS'R("R_NOtex_Rev")'
p2697
aS'R("R_ACSERtpp")'
p2698
aS'R("R_QMO2")'
p2699
aS'R("R_PLIPA1G141pp")'
p2700
aS'R("R_DXYLK")'
p2701
aS'R("R_ARGt3pp")'
p2702
aS'R("R_NI2tex_Rev")'
p2703
aS'R("R_FEOXAMUtpp")'
p2704
aS'R("R_HKNDDH")'
p2705
aS'R("R_EX_trp_L_e__Rev")'
p2706
aS'R("R_MCOATA")'
p2707
aS'R("R_AACPS8")'
p2708
aS'R("R_HEMEOS")'
p2709
aS'R("R_EX_chol_e_")'
p2710
aS'R("R_MDH3")'
p2711
aS'R("R_ALLTNt2rpp")'
p2712
aS'R("R_DHBSH")'
p2713
aS'R("R_RBFK")'
p2714
aS'R("R_PGI_Rev")'
p2715
aS'R("R_EX_galur_e__Rev")'
p2716
aS'R("R_MLTP2")'
p2717
aS'R("R_INDOLEtex")'
p2718
aS'R("R_CYTBD2pp")'
p2719
aS'R("R_CYStpp")'
p2720
aS'R("R_EX_isetac_e__Rev")'
p2721
aS'R("R_PAPA141")'
p2722
aS'R("R_FE3HOXtonex")'
p2723
aS'R("R_GLUTRR")'
p2724
aS'R("R_TYMtex_Rev")'
p2725
aS'R("R_ARBtex_Rev")'
p2726
aS'R("R_SKMtex")'
p2727
aS'R("R_EX_h2o_e__Rev")'
p2728
aS'R("R_EX_h2o2_e_")'
p2729
aS'R("R_MANGLYCtex")'
p2730
aS'R("R_PRAGSr_Rev")'
p2731
aS'R("R_GLYCtex_Rev")'
p2732
aS'R("R_3CMPtex")'
p2733
aS'R("R_EX_met_D_e_")'
p2734
aS'R("R_NNATr")'
p2735
aS'R("R_EX_cbl1_e_")'
p2736
aS'R("R_FEOXAMR2")'
p2737
aS'R("R_LALGP")'
p2738
aS'R("R_MLTG4")'
p2739
aS'R("R_FMNRx")'
p2740
aS'R("R_ADSL1r")'
p2741
aS'R("R_M1PD_Rev")'
p2742
aS'R("R_ODECOAI")'
p2743
aS'R("R_UMPtex_Rev")'
p2744
aS'R("R_CLIPAtex")'
p2745
aS'R("R_TRPtex")'
p2746
aS'R("R_COBALT2t3pp")'
p2747
aS'R("R_XTSNtex_Rev")'
p2748
aS'R("R_EX_asp_L_e_")'
p2749
aS'R("R_OCTDPS")'
p2750
aS'R("R_CLPNS160pp_Rev")'
p2751
aS'R("R_SULFACtex")'
p2752
aS'R("R_TDPDRE")'
p2753
aS'R("R_EX_asn_L_e_")'
p2754
aS'R("R_DHQTi")'
p2755
aS'R("R_VALabcpp")'
p2756
aS'R("R_PSSA160")'
p2757
aS'R("R_PROtex")'
p2758
aS'R("R_PLIPA2G120pp")'
p2759
aS'R("R_SHCHD2")'
p2760
aS'R("R_ACGAMT")'
p2761
aS'R("R_3OAS160")'
p2762
aS'R("R_CPPPGO")'
p2763
aS'R("R_ADMDC")'
p2764
aS'R("R_PUNP2_Rev")'
p2765
aS'R("R_INDOLEt2pp")'
p2766
aS'R("R_LPLIPAL1A160pp")'
p2767
aS'R("R_UDPG4E_Rev")'
p2768
aS'R("R_PYRtex_Rev")'
p2769
aS'R("R_EX_udpacgal_e_")'
p2770
aS'R("R_EX_feenter_e_")'
p2771
aS'R("R_FACOAE180")'
p2772
aS'R("R_PHEt2rpp")'
p2773
aS'R("R_EX_dimp_e__Rev")'
p2774
aS'R("R_RMK")'
p2775
aS'R("R_EX_tsul_e_")'
p2776
aS'R("R_ALAt2pp")'
p2777
aS'R("R_EX_gal_e_")'
p2778
aS'R("R_GLCRt2rpp")'
p2779
aS'R("R_PTRCtex_Rev")'
p2780
aS'R("R_HCINNMtex_Rev")'
p2781
aS'R("R_ME2")'
p2782
aS'R("R_HMBS")'
p2783
aS'R("R_NTD11")'
p2784
aS'R("R_NDPK6")'
p2785
aS'R("R_EX_maltpt_e_")'
p2786
aS'R("R_ACGAMK")'
p2787
aS'R("R_FRUK")'
p2788
aS'R("R_TYRTRS")'
p2789
aS'R("R_THRTRS")'
p2790
aS'R("R_RPE")'
p2791
aS'R("R_TREtex")'
p2792
aS'R("R_EX_duri_e_")'
p2793
aS'R("R_UGLT")'
p2794
aS'R("R_EX_gln_L_e_")'
p2795
aS'R("R_PLIPA2A141pp")'
p2796
aS'R("R_EX_glcur1p_e__Rev")'
p2797
aS'R("R_SOTA")'
p2798
aS'R("R_G3PAT181")'
p2799
aS'R("R_UAGAAT_Rev")'
p2800
aS'R("R_EX_hg2_e__Rev")'
p2801
aS'R("R_CLPNS161pp")'
p2802
aS'R("R_EX_manglyc_e__Rev")'
p2803
aS'R("R_HXCT")'
p2804
aS'R("R_METDtex")'
p2805
aS'R("R_SELNPS")'
p2806
aS'R("R_DMPPS")'
p2807
aS'R("R_EX_ser_L_e__Rev")'
p2808
aS'R("R_HPPPNDO")'
p2809
aS'R("R_KDOCT2")'
p2810
aS'R("R_THRt2rpp_Rev")'
p2811
aS'R("R_NADDP")'
p2812
aS'R("R_NO3R2bpp")'
p2813
aS'R("R_FALDtex_Rev")'
p2814
aS'R("R_DNMPPA")'
p2815
aS'R("R_LPLIPAL2A140")'
p2816
aS'R("R_ADSK")'
p2817
aS'R("R_LEUt2rpp_Rev")'
p2818
aS'R("R_THDPS")'
p2819
aS'R("R_PETNT161pp")'
p2820
aS'R("R_DCAtex_Rev")'
p2821
aS'R("R_SBTPD_Rev")'
p2822
aS'R("R_GTHRDabc2pp")'
p2823
aS'R("R_CBLAT")'
p2824
aS'R("R_DURIPP")'
p2825
aS'R("R_ARBTNtonex")'
p2826
aS'R("R_FE3DHBZSabcpp")'
p2827
aS'R("R_ISETACtex_Rev")'
p2828
aS'R("R_PRAIi")'
p2829
aS'R("R_ECA4COLIPAtex")'
p2830
aS'R("R_3OAR60_Rev")'
p2831
aS'R("R_EX_thm_e__Rev")'
p2832
aS'R("R_EX_g3pi_e_")'
p2833
aS'R("R_3CMPtex_Rev")'
p2834
aS'R("R_CBLAT_Rev")'
p2835
aS'R("R_ASNabcpp")'
p2836
aS'R("R_ASNTRS")'
p2837
aS'R("R_SUCOAS")'
p2838
aS'R("R_RMNtex_Rev")'
p2839
aS'R("R_EX_cyan_e_")'
p2840
aS'R("R_SKMtex_Rev")'
p2841
aS'R("R_NTD4")'
p2842
aS'R("R_FA160ACPHi")'
p2843
aS'R("R_RNTR1c")'
p2844
aS'R("R_IDONtex")'
p2845
aS'R("R_ILEtex")'
p2846
aS'R("R_NTD1")'
p2847
aS'R("R_PPPNtex")'
p2848
aS'R("R_EX_ttdcea_e__Rev")'
p2849
aS'R("R_EX_3cmp_e__Rev")'
p2850
aS'R("R_ASPtex")'
p2851
aS'R("R_ALLULPE")'
p2852
aS'R("R_ACSERtex_Rev")'
p2853
aS'R("R_EX_gdp_e__Rev")'
p2854
aS'R("R_MLTGY2pp")'
p2855
aS'R("R_ACMUMptspp")'
p2856
aS'R("R_CLPNS141pp_Rev")'
p2857
aS'R("R_AMALT3")'
p2858
aS'R("R_PACALDtex")'
p2859
aS'R("R_EX_akg_e_")'
p2860
aS'R("R_SUCCt3pp")'
p2861
aS'R("R_GUAtex_Rev")'
p2862
aS'R("R_RNDR4")'
p2863
aS'R("R_EX_o2_e__Rev")'
p2864
aS'R("R_GLYBtex")'
p2865
aS'R("R_PYDXNK")'
p2866
aS'R("R_NAtex_Rev")'
p2867
aS'R("R_TMAOR1pp")'
p2868
aS'R("R_A5PISO")'
p2869
aS'R("R_CLPNS180pp")'
p2870
aS'R("R_GPDDA2pp")'
p2871
aS'R("R_3OAS100")'
p2872
aS'R("R_EX_fru_e_")'
p2873
aS'R("R_DGK1")'
p2874
aS'R("R_GTPHs")'
p2875
aS'R("R_PE180abcpp")'
p2876
aS'R("R_PLIPA1G120pp")'
p2877
aS'R("R_AACPS2")'
p2878
aS'R("R_PRMICI")'
p2879
aS'R("R_EX_glcr_e_")'
p2880
aS'R("R_ACCOAC")'
p2881
aS'R("R_2AGPEAT180")'
p2882
aS'R("R_HCYSMT")'
p2883
aS'R("R_METSOX2tex_Rev")'
p2884
aS'R("R_IMPD")'
p2885
aS'R("R_PAPA161pp")'
p2886
aS'R("R_PSD141")'
p2887
aS'R("R_EAR161y")'
p2888
aS'R("R_ACANTHAT")'
p2889
aS'R("R_NNATr_Rev")'
p2890
aS'R("R_NAt3_1p5pp")'
p2891
aS'R("R_CGLYtex_Rev")'
p2892
aS'R("R_PPNDH")'
p2893
aS'R("R_PSERtex_Rev")'
p2894
aS'R("R_ACOAD7f_Rev")'
p2895
aS'R("R_ARGDCpp")'
p2896
aS'R("R_CPGNUtex")'
p2897
aS'R("R_EX_lys_L_e__Rev")'
p2898
aS'R("R_EX_udpglcur_e__Rev")'
p2899
aS'R("R_CRNt8pp")'
p2900
aS'R("R_CLPNS120pp")'
p2901
aS'R("R_FEOXAMR1")'
p2902
aS'R("R_EX_agm_e__Rev")'
p2903
aS'R("R_GDPMNH")'
p2904
aS'R("R_PSCVT_Rev")'
p2905
aS'R("R_HYXNtpp_Rev")'
p2906
aS'R("R_EX_pyr_e__Rev")'
p2907
aS'R("R_PPALtex_Rev")'
p2908
aS'R("R_LPLIPAL1G180pp")'
p2909
aS'R("R_AGPAT120")'
p2910
aS'R("R_XYLabcpp")'
p2911
aS'R("R_CPGNtonex")'
p2912
aS'R("R_EX_fe3_e_")'
p2913
aS'R("R_EX_glyc_R_e__Rev")'
p2914
aS'R("R_MPTG")'
p2915
aS'R("R_PTRCt2pp")'
p2916
aS'R("R_LSERDHr")'
p2917
aS'R("R_EX_fru_e__Rev")'
p2918
aS'R("R_NH4tex")'
p2919
aS'R("R_CRNCBCT")'
p2920
aS'R("R_LPLIPAL1G160pp")'
p2921
aS'R("R_EX_pro_L_e__Rev")'
p2922
aS'R("R_EX_ocdca_e_")'
p2923
aS'R("R_EX_nac_e_")'
p2924
aS'R("R_EX_gmp_e_")'
p2925
aS'R("R_GAPD")'
p2926
aS'R("R_OXAMTC")'
p2927
aS'R("R_FUCtpp_Rev")'
p2928
aS'R("R_TYRt2rpp")'
p2929
aS'R("R_LPLIPAL2ATG181")'
p2930
aS'R("R_TRE6PH")'
p2931
aS'R("R_EX_akg_e__Rev")'
p2932
aS'R("R_FE3HOXexs")'
p2933
aS'R("R_MAN6PI")'
p2934
aS'R("R_ARBabcpp")'
p2935
aS'R("R_TDPADGAT")'
p2936
aS'R("R_ACt2rpp")'
p2937
aS'R("R_12PPDRtpp_Rev")'
p2938
aS'R("R_ALAtex_Rev")'
p2939
aS'R("R_EX_hxan_e_")'
p2940
aS'R("R_ADCS")'
p2941
aS'R("R_AACPS9")'
p2942
aS'R("R_AOXSr")'
p2943
aS'R("R_UAG2E_Rev")'
p2944
aS'R("R_VALtex_Rev")'
p2945
aS'R("R_SPMDabcpp")'
p2946
aS'R("R_AP5AH")'
p2947
aS'R("R_THRPtex_Rev")'
p2948
aS'R("R_GLYCtpp")'
p2949
aS'R("R_3OAR180_Rev")'
p2950
aS'R("R_DKGLCNR1")'
p2951
aS'R("R_2AGPE161tipp")'
p2952
aS'R("R_PHEtex")'
p2953
aS'R("R_ACONIs")'
p2954
aS'R("R_CYTK1_Rev")'
p2955
aS'R("R_TMAOtex_Rev")'
p2956
aS'R("R_ATHRDHr_Rev")'
p2957
aS'R("R_ACACCT")'
p2958
aS'R("R_PLIPA2G160pp")'
p2959
aS'R("R_EX_fecrm_un_e__Rev")'
p2960
aS'R("R_MOAT2")'
p2961
aS'R("R_12DGR161tipp")'
p2962
aS'R("R_GLUPRT")'
p2963
aS'R("R_4HOXPACDtex_Rev")'
p2964
aS'R("R_THYMtex_Rev")'
p2965
aS'R("R_ALAALAr_Rev")'
p2966
aS'R("R_CBIAT")'
p2967
aS'R("R_EX_3hcinnm_e__Rev")'
p2968
aS'R("R_EX_anhgm_e_")'
p2969
aS'R("R_EX_rib_D_e__Rev")'
p2970
aS'R("R_HISt2rpp")'
p2971
aS'R("R_DSERDHr_Rev")'
p2972
aS'R("R_NO3R2pp")'
p2973
aS'R("R_PG120abcpp")'
p2974
aS'R("R_34dhpactex_Rev")'
p2975
aS'R("R_ETHAAL")'
p2976
aS'R("R_AGM3PApp")'
p2977
aS'R("R_SUCCtex_Rev")'
p2978
aS'R("R_EX_adn_e_")'
p2979
aS'R("R_EX_malthx_e_")'
p2980
aS'R("R_EX_acnam_e_")'
p2981
aS'R("R_MANtex")'
p2982
aS'R("R_NADH10")'
p2983
aS'R("R_PTRCtex")'
p2984
aS'R("R_ACACt2pp_Rev")'
p2985
aS'R("R_3HAD140")'
p2986
aS'R("R_AGDC")'
p2987
aS'R("R_EAR120x")'
p2988
aS'R("R_OCTAtex")'
p2989
aS'R("R_SADT2")'
p2990
aS'R("R_ACMUMtex")'
p2991
aS'R("R_H2Stex")'
p2992
aS'R("R_G3PT")'
p2993
aS'R("R_UAMAGS")'
p2994
aS'R("R_ADEt2rpp_Rev")'
p2995
aS'R("R_EX_glyald_e_")'
p2996
aS'R("R_3OAR100")'
p2997
aS'R("R_GPDDA1pp")'
p2998
aS'R("R_23CUMPtex")'
p2999
aS'R("R_GLYTRS")'
p3000
aS'R("R_CITtex_Rev")'
p3001
aS'R("R_3OAR160_Rev")'
p3002
aS'R("R_AKGDH")'
p3003
aS'R("R_PFL")'
p3004
aS'R("R_EX_mal_D_e__Rev")'
p3005
aS'R("R_EX_orn_e__Rev")'
p3006
aS'R("R_NADH16pp")'
p3007
aS'R("R_IPPS")'
p3008
aS'R("R_ARAI_Rev")'
p3009
aS'R("R_CITL")'
p3010
aS'R("R_EX_man6p_e__Rev")'
p3011
aS'R("R_EX_12ppd_S_e_")'
p3012
aS'R("R_AGM4PCPpp")'
p3013
aS'R("R_DDPA")'
p3014
aS'R("R_DAGK181")'
p3015
aS'R("R_PROt2rpp_Rev")'
p3016
aS'R("R_FE3tex")'
p3017
aS'R("R_CYSTRS")'
p3018
aS'R("R_GDPtex")'
p3019
aS'R("R_CRNDt2rpp")'
p3020
aS'R("R_TSULabcpp")'
p3021
aS'R("R_SKMt2pp")'
p3022
aS'R("R_DASYN181")'
p3023
aS'R("R_ALATRS")'
p3024
aS'R("R_G1PPpp")'
p3025
aS'R("R_EX_tartr_L_e__Rev")'
p3026
aS'R("R_DSERtex_Rev")'
p3027
aS'R("R_3OAS120")'
p3028
aS'R("R_EX_but_e__Rev")'
p3029
aS'R("R_NO3tex_Rev")'
p3030
aS'R("R_NOtpp")'
p3031
aS'R("R_FHL")'
p3032
aS'R("R_PSD181")'
p3033
aS'R("R_EX_fruur_e_")'
p3034
aS'R("R_HSK")'
p3035
aS'R("R_NTD7pp")'
p3036
aS'R("R_PGAMT")'
p3037
aS'R("R_FTHFD")'
p3038
aS'R("R_KAT8")'
p3039
aS'R("R_R15BPK")'
p3040
aS'R("R_CRNCDH_Rev")'
p3041
aS'R("R_HEX1")'
p3042
aS'R("R_PPKr")'
p3043
aS'R("R_ACtex")'
p3044
aS'R("R_PYDXK")'
p3045
aS'R("R_NDPK5")'
p3046
aS'R("R_ATPS4rpp_Rev")'
p3047
aS'R("R_EX_csn_e_")'
p3048
aS'R("R_OPHHX3")'
p3049
aS'R("R_DURIPP_Rev")'
p3050
aS'R("R_AM4PCP")'
p3051
aS'R("R_SO3tex")'
p3052
aS'R("R_TRSARr")'
p3053
aS'R("R_LPLIPAL2G181")'
p3054
aS'R("R_GLYCK2")'
p3055
aS'R("R_NH4tex_Rev")'
p3056
aS'R("R_ADSL2r")'
p3057
aS'R("R_ACALDtpp")'
p3058
aS'R("R_IMPtex_Rev")'
p3059
aS'R("R_GALtex")'
p3060
aS'R("R_EX_23cgmp_e__Rev")'
p3061
aS'R("R_CDPMEK")'
p3062
aS'R("R_PAPA141pp")'
p3063
aS'R("R_MALtex_Rev")'
p3064
aS'R("R_UAPGR")'
p3065
aS'R("R_LCTSt3ipp")'
p3066
aS'R("R_NADH17pp")'
p3067
aS'R("R_EX_ethso3_e_")'
p3068
aS'R("R_CBIuabcpp")'
p3069
aS'R("R_MDDCP4pp")'
p3070
aS'R("R_ARBt3ipp")'
p3071
aS'R("R_EX_cu2_e__Rev")'
p3072
aS'R("R_PUNP4_Rev")'
p3073
aS'R("R_FFSD")'
p3074
aS'R("R_MG2tex_Rev")'
p3075
aS'R("R_RMNtpp")'
p3076
aS'R("R_EX_sucr_e__Rev")'
p3077
aS'R("R_EX_alaala_e_")'
p3078
aS'R("R_IPDDI_Rev")'
p3079
aS'R("R_PPM2")'
p3080
aS'R("R_LADGMDH")'
p3081
aS'R("R_NTP5")'
p3082
aS'R("R_GLUABUTt7pp")'
p3083
aS'R("R_DHAD1")'
p3084
aS'R("R_ACGS")'
p3085
aS'R("R_PGPP141")'
p3086
aS'R("R_EX_thr_L_e__Rev")'
p3087
aS'R("R_PIuabcpp")'
p3088
aS'R("R_URIK2")'
p3089
aS'R("R_MNNH")'
p3090
aS'R("R_K2L4Aabcpp")'
p3091
aS'R("R_FLVRx")'
p3092
aS'R("R_PMDPHT")'
p3093
aS'R("R_ALCD2x")'
p3094
aS'R("R_FACOAE80")'
p3095
aS'R("R_DAPDC")'
p3096
aS'R("R_EX_23cump_e__Rev")'
p3097
aS'R("R_METabcpp")'
p3098
aS'R("R_DHORTS")'
p3099
aS'R("R_PPS")'
p3100
aS'R("R_HYXNtex_Rev")'
p3101
aS'R("R_TRDR")'
p3102
aS'R("R_EX_but_e_")'
p3103
aS'R("R_AOXSr_Rev")'
p3104
aS'R("R_ACMANAtex")'
p3105
aS'R("R_ASPO4")'
p3106
aS'R("R_ALAALAD")'
p3107
aS'R("R_G3PIabcpp")'
p3108
aS'R("R_CDAPPA180")'
p3109
aS'R("R_THYMtex")'
p3110
aS'R("R_GLCtexi")'
p3111
aS'R("R_PG180abcpp")'
p3112
aS'R("R_2AGPGAT180")'
p3113
aS'R("R_GLDBRAN2")'
p3114
aS'R("R_GLNtex_Rev")'
p3115
aS'R("R_CYANtex_Rev")'
p3116
aS'R("R_AIRC3_Rev")'
p3117
aS'R("R_TCYNTtex_Rev")'
p3118
aS'R("R_DHCINDO")'
p3119
aS'R("R_PLIPA2E140pp")'
p3120
aS'R("R_DINSt2pp")'
p3121
aS'R("R_OCDCEAtexi")'
p3122
aS'R("R_PRATPP")'
p3123
aS'R("R_PGP181abcpp")'
p3124
aS'R("R_METDabcpp")'
p3125
aS'R("R_EX_acgal_e_")'
p3126
aS'R("R_3OAR180")'
p3127
aS'R("R_PUNP6")'
p3128
aS'R("R_3GMPtex_Rev")'
p3129
aS'R("R_EX_so3_e_")'
p3130
aS'R("R_G3PD2_Rev")'
p3131
aS'R("R_KAT2")'
p3132
aS'R("R_PHYTSpp")'
p3133
aS'R("R_INDOLEt2rpp_Rev")'
p3134
aS'R("R_FDMO2")'
p3135
aS'R("R_ABUTt2pp")'
p3136
aS'R("R_ATPHs")'
p3137
aS'R("R_SBTptspp")'
p3138
aS'R("R_ILEabcpp")'
p3139
aS'R("R_PLIPA2G140pp")'
p3140
aS'R("R_NMNtex")'
p3141
aS'R("R_O16AP1pp")'
p3142
aS'R("R_3UMPtex")'
p3143
aS'R("R_NTP3pp")'
p3144
aS'R("R_2AGPA160tipp")'
p3145
aS'R("R_XYLK2")'
p3146
aS'R("R_EX_duri_e__Rev")'
p3147
aS'R("R_ENO_Rev")'
p3148
aS'R("R_EX_no_e__Rev")'
p3149
aS'R("R_SPMS")'
p3150
aS'R("R_XMPtex")'
p3151
aS'R("R_2DGLCNRy")'
p3152
aS'R("R_ALDD2y")'
p3153
aS'R("R_EX_malt_e_")'
p3154
aS'R("R_FECRMexs")'
p3155
aS'R("R_EX_frulys_e_")'
p3156
aS'R("R_URIt2pp")'
p3157
aS'R("R_2AGPGAT141")'
p3158
aS'R("R_ARGtex_Rev")'
p3159
aS'R("R_PYK")'
p3160
aS'R("R_BSORy")'
p3161
aS'R("R_MLDCP1Bpp")'
p3162
aS'R("R_EX_cynt_e__Rev")'
p3163
aS'R("R_EX_imp_e_")'
p3164
aS'R("R_SPODMpp")'
p3165
aS'R("R_DHQS")'
p3166
aS'R("R_3OAR40_Rev")'
p3167
aS'R("R_EX_csn_e__Rev")'
p3168
aS'R("R_23DAPPAt2pp")'
p3169
aS'R("R_GLCRAL")'
p3170
aS'R("R_HCINNMt2rpp_Rev")'
p3171
aS'R("R_EX_ptrc_e_")'
p3172
aS'R("R_UACGAMPpp")'
p3173
aS'R("R_FE3DHBZStonex")'
p3174
aS'R("R_TREH")'
p3175
aS'R("R_ZN2t3pp")'
p3176
aS'R("R_NTPTP1")'
p3177
aS'R("R_CBMKr")'
p3178
aS'R("R_3HCINNMH")'
p3179
aS'R("R_BUTSO3abcpp")'
p3180
aS'R("R_ARBTNtex")'
p3181
aS'R("R_GLCURt2rpp_Rev")'
p3182
aS'R("R_EX_3gmp_e__Rev")'
p3183
aS'R("R_DAPAL")'
p3184
aS'R("R_HEPT4")'
p3185
aS'R("R_DDPGALA_Rev")'
p3186
aS'R("R_NTPP10")'
p3187
aS'R("R_PGSA161")'
p3188
aS'R("R_PItex_Rev")'
p3189
aS'R("R_EX_co2_e__Rev")'
p3190
aS'R("R_EX_etoh_e_")'
p3191
aS'R("R_FACOAL100t2pp")'
p3192
aS'R("R_LIPAtex")'
p3193
aS'R("R_ENO")'
p3194
aS'R("R_PAPA140")'
p3195
aS'R("R_FRULYStex")'
p3196
aS'R("R_GRTT")'
p3197
aS'R("R_EAR180y")'
p3198
aS'R("R_EX_14glucan_e__Rev")'
p3199
aS'R("R_MSO3abcpp")'
p3200
aS'R("R_LPLIPAL2ATE161")'
p3201
aS'R("R_TMDPP_Rev")'
p3202
aS'R("R_DHPPDA2")'
p3203
aS'R("R_PRAGSr")'
p3204
aS'R("R_UGMDDS")'
p3205
aS'R("R_MN2t3pp")'
p3206
aS'R("R_DIMPtex_Rev")'
p3207
aS'R("R_GUAPRT")'
p3208
aS'R("R_4PEPTtex_Rev")'
p3209
aS'R("R_CGLYabcpp")'
p3210
aS'R("R_EX_mal_L_e__Rev")'
p3211
aS'R("R_UDCPPtppi")'
p3212
aS'R("R_LPLIPAL2ATG140")'
p3213
aS'R("R_CYSDS")'
p3214
aS'R("R_MALTTTRtexi")'
p3215
aS'R("R_UDPGALtex_Rev")'
p3216
aS'R("R_FUCtex")'
p3217
aS'R("R_GLUDC")'
p3218
aS'R("R_3HAD120")'
p3219
aS'R("R_EX_so3_e__Rev")'
p3220
aS'R("R_EX_23dappa_e_")'
p3221
aS'R("R_TYRt2rpp_Rev")'
p3222
aS'R("R_ALLtex_Rev")'
p3223
aS'R("R_GLCTR3")'
p3224
aS'R("R_TUNGSabcpp")'
p3225
aS'R("R_PSCLYSt2pp")'
p3226
aS'R("R_ARBTNR3")'
p3227
aS'R("R_EX_gthox_e_")'
p3228
atp3229
Rp3230
.